

Microchip MPLAB XC8 Assembler V2.31 build 20201012212115 
                                                                                               Fri Jan 29 13:54:39 2021

Microchip MPLAB XC8 C Compiler v2.31 (Free license) build 20201012212115 Og1 
     1                           	processor	18F25K20
     2                           	fnconf	rparam,??,?,0
     3                           	pagewidth 120
     4                           	opt	flic
     5                           	psect	smallconst,global,reloc=2,class=SMALLCONST,delta=1,noexec
     6                           	psect	cinit,global,reloc=2,class=CODE,delta=1
     7                           	psect	bssCOMRAM,global,class=COMRAM,space=1,delta=1,lowdata,noexec
     8                           	psect	cstackCOMRAM,global,class=COMRAM,space=1,delta=1,lowdata,noexec
     9                           	psect	text0,global,reloc=2,class=CODE,delta=1
    10                           	psect	text1,global,reloc=2,class=CODE,delta=1
    11                           	psect	text2,global,reloc=2,class=CODE,delta=1
    12                           	psect	text3,global,reloc=2,class=CODE,delta=1
    13                           	psect	text4,global,reloc=2,class=CODE,delta=1
    14                           	psect	text5,global,reloc=2,class=CODE,delta=1
    15                           	psect	text6,global,reloc=2,class=CODE,delta=1
    16                           	psect	text7,global,reloc=2,class=CODE,delta=1
    17                           	psect	text8,global,reloc=2,class=CODE,delta=1
    18                           	psect	text9,global,reloc=2,class=CODE,delta=1
    19                           	psect	text10,global,reloc=2,class=CODE,delta=1
    20                           	psect	text11,global,reloc=2,class=CODE,delta=1
    21                           	psect	text12,global,reloc=2,class=CODE,delta=1
    22                           	psect	text13,global,reloc=2,class=CODE,delta=1
    23                           	psect	intsave_regs,global,class=BIGRAM,space=1,delta=1,noexec
    24                           	psect	rparam,global,class=COMRAM,space=1,delta=1,noexec
    25                           	psect	idloc,global,abs,ovrld,class=IDLOC,space=5,delta=1,noexec
    26                           	psect	config,global,abs,ovrld,class=CONFIG,space=4,delta=1,noexec
    27  0000                     
    28                           ; Version 2.20
    29                           ; Generated 05/05/2020 GMT
    30                           ; 
    31                           ; Copyright © 2020, Microchip Technology Inc. and its subsidiaries ("Microchip")
    32                           ; All rights reserved.
    33                           ; 
    34                           ; This software is developed by Microchip Technology Inc. and its subsidiaries ("Microch
      +                          ip").
    35                           ; 
    36                           ; Redistribution and use in source and binary forms, with or without modification, are
    37                           ; permitted provided that the following conditions are met:
    38                           ; 
    39                           ;     1. Redistributions of source code must retain the above copyright notice, this lis
      +                          t of
    40                           ;        conditions and the following disclaimer.
    41                           ; 
    42                           ;     2. Redistributions in binary form must reproduce the above copyright notice, this 
      +                          list
    43                           ;        of conditions and the following disclaimer in the documentation and/or other
    44                           ;        materials provided with the distribution.
    45                           ; 
    46                           ;     3. Microchip's name may not be used to endorse or promote products derived from th
      +                          is
    47                           ;        software without specific prior written permission.
    48                           ; 
    49                           ; THIS SOFTWARE IS PROVIDED BY MICROCHIP "AS IS" AND ANY EXPRESS OR IMPLIED WARRANTIES,
    50                           ; INCLUDING, BUT NOT LIMITED TO, THE IMPLIED WARRANTIES OF MERCHANTABILITY AND FITNESS F
      +                          OR
    51                           ; PURPOSE ARE DISCLAIMED.  IN NO EVENT SHALL MICROCHIP BE LIABLE FOR ANY DIRECT, INDIREC
      +                          T,
    52                           ; INCIDENTAL, SPECIAL, EXEMPLARY, OR CONSEQUENTIAL DAMAGES (INCLUDING BUT NOT LIMITED TO
    53                           ; PROCUREMENT OF SUBSTITUTE GOODS OR SERVICES; LOSS OF USE, DATA OR PROFITS; OR BUSINESS
    54                           ; INTERRUPTION) HOWSOEVER CAUSED AND ON ANY THEORY OF LIABILITY, WHETHER IN CONTRACT, ST
      +                          RICT
    55                           ; LIABILITY, OR TORT (INCLUDING NEGLIGENCE OR OTHERWISE) ARISING IN ANY WAY OUT OF THE U
      +                          SE OF
    56                           ; THIS SOFTWARE, EVEN IF ADVISED OF THE POSSIBILITY OF SUCH DAMAGE.
    57                           ; 
    58                           ; 
    59                           ; Code-generator required, PIC18F25K20 Definitions
    60                           ; 
    61                           ; SFR Addresses
    62  0000                     _LATAbits	set	3977
    63  0000                     _TRISCbits	set	3988
    64  0000                     _TRISBbits	set	3987
    65  0000                     _PORTB	set	3969
    66  0000                     _LATCbits	set	3979
    67  0000                     _LATBbits	set	3978
    68  0000                     _INTCONbits	set	4082
    69  0000                     _INTCON2bits	set	4081
    70  0000                     _WPUB	set	3964
    71  0000                     _ANSELH	set	3967
    72  0000                     _ANSEL	set	3966
    73  0000                     _TRISC	set	3988
    74  0000                     _TRISB	set	3987
    75  0000                     _TRISA	set	3986
    76  0000                     _LATC	set	3979
    77  0000                     _LATB	set	3978
    78  0000                     _LATA	set	3977
    79  0000                     _OSCTUNE	set	3995
    80  0000                     _OSCCON	set	4051
    81                           
    82                           	psect	smallconst
    83  000600                     __psmallconst:
    84                           	callstack 0
    85  000600  00                 	db	0
    86  000601  20                 	db	32
    87  000602  20                 	db	32
    88  000603  43                 	db	67	;'C'
    89  000604  6F                 	db	111	;'o'
    90  000605  6E                 	db	110	;'n'
    91  000606  76                 	db	118	;'v'
    92  000607  65                 	db	101	;'e'
    93  000608  72                 	db	114	;'r'
    94  000609  73                 	db	115	;'s'
    95  00060A  6F                 	db	111	;'o'
    96  00060B  72                 	db	114	;'r'
    97  00060C  20                 	db	32
    98  00060D  41                 	db	65	;'A'
    99  00060E  2F                 	db	47
   100  00060F  44                 	db	68	;'D'
   101  000610  00                 	db	0
   102  000611  20                 	db	32
   103  000612  20                 	db	32
   104  000613  20                 	db	32
   105  000614  45                 	db	69	;'E'
   106  000615  6E                 	db	110	;'n'
   107  000616  65                 	db	101	;'e'
   108  000617  72                 	db	114	;'r'
   109  000618  6F                 	db	111	;'o'
   110  000619  2D                 	db	45
   111  00061A  32                 	db	50	;'2'
   112  00061B  30                 	db	48	;'0'
   113  00061C  32                 	db	50	;'2'
   114  00061D  30                 	db	48	;'0'
   115  00061E  00                 	db	0
   116  00061F                     STR_1:
   117  00061F  52                 	db	82	;'R'
   118  000620  69                 	db	105	;'i'
   119  000621  6F                 	db	111	;'o'
   120  000622  20                 	db	32
   121  000623  43                 	db	67	;'C'
   122  000624  61                 	db	97	;'a'
   123  000625  72                 	db	114	;'r'
   124  000626  69                 	db	105	;'i'
   125  000627  62                 	db	98	;'b'
   126  000628  65                 	db	101	;'e'
   127  000629  20                 	db	32
   128  00062A  00                 	db	0
   129  00062B  25                 	db	37
   130  00062C  6C                 	db	108	;'l'
   131  00062D  75                 	db	117	;'u'
   132  00062E  2E                 	db	46
   133  00062F  25                 	db	37
   134  000630  34                 	db	52	;'4'
   135  000631  2E                 	db	46
   136  000632  33                 	db	51	;'3'
   137  000633  6C                 	db	108	;'l'
   138  000634  75                 	db	117	;'u'
   139  000635  00                 	db	0
   140  000636                     STR_2:
   141  000636  20                 	db	32
   142  000637  53                 	db	83	;'S'
   143  000638  75                 	db	117	;'u'
   144  000639  63                 	db	99	;'c'
   145  00063A  72                 	db	114	;'r'
   146  00063B  65                 	db	101	;'e'
   147  00063C  20                 	db	32
   148  00063D  00                 	db	0
   149  00063E  00                 	db	0	; dummy byte at the end
   150  0000                     
   151                           ; #config settings
   152                           
   153                           	psect	cinit
   154  000A44                     __pcinit:
   155                           	callstack 0
   156  000A44                     start_initialization:
   157                           	callstack 0
   158  000A44                     __initialization:
   159                           	callstack 0
   160                           
   161                           ; Clear objects allocated to COMRAM (17 bytes)
   162  000A44  EE00  F001         	lfsr	0,__pbssCOMRAM
   163  000A48  0E11               	movlw	17
   164  000A4A                     clear_0:
   165  000A4A  6AEE               	clrf	postinc0,c
   166  000A4C  06E8               	decf	wreg,f,c
   167  000A4E  E1FD               	bnz	clear_0
   168  000A50                     end_of_initialization:
   169                           	callstack 0
   170  000A50                     __end_of__initialization:
   171                           	callstack 0
   172  000A50  0E00               	movlw	low (__Lmediumconst shr (0+16))
   173  000A52  6EF8               	movwf	tblptru,c
   174  000A54  0100               	movlb	0
   175  000A56  EFB3  F003         	goto	_main	;jump to C main() function
   176                           
   177                           	psect	bssCOMRAM
   178  000001                     __pbssCOMRAM:
   179                           	callstack 0
   180  000001                     ftoat_mio@buf:
   181                           	callstack 0
   182  000001                     	ds	17
   183                           
   184                           	psect	cstackCOMRAM
   185  000012                     __pcstackCOMRAM:
   186                           	callstack 0
   187  000012                     ??_SetDDRamAddr:
   188  000012                     ??_DelayPORXLCD:
   189  000012                     ??_DelayXLCD:
   190  000012                     WriteDataXLCD@data:
   191                           	callstack 0
   192                           
   193                           ; 1 bytes @ 0x0
   194  000012                     	ds	1
   195  000013                     WriteCmdXLCD@cmd:
   196                           	callstack 0
   197  000013                     putrsXLCD@buffer:
   198                           	callstack 0
   199                           
   200                           ; 2 bytes @ 0x1
   201  000013                     	ds	2
   202  000015                     SetDDRamAddr@DDaddr:
   203                           	callstack 0
   204                           
   205                           ; 1 bytes @ 0x3
   206  000015                     	ds	1
   207  000016                     ??_OpenXLCD:
   208                           
   209                           ; 1 bytes @ 0x4
   210  000016                     	ds	1
   211  000017                     OpenXLCD@lcdtype:
   212                           	callstack 0
   213                           
   214                           ; 1 bytes @ 0x5
   215  000017                     	ds	1
   216  000018                     ??_main:
   217                           
   218                           ; 1 bytes @ 0x6
   219  000018                     	ds	2
   220                           
   221 ;;
   222 ;;Main: autosize = 0, tempsize = 2, incstack = 0, save=0
   223 ;;
   224 ;; *************** function _main *****************
   225 ;; Defined at:
   226 ;;		line 51 in file "main.c"
   227 ;; Parameters:    Size  Location     Type
   228 ;;		None
   229 ;; Auto vars:     Size  Location     Type
   230 ;;		None
   231 ;; Return value:  Size  Location     Type
   232 ;;                  1    wreg      void 
   233 ;; Registers used:
   234 ;;		wreg, fsr0l, fsr0h, status,2, status,0, tblptrl, tblptrh, tblptru, cstack
   235 ;; Tracked objects:
   236 ;;		On entry : 0/0
   237 ;;		On exit  : 0/0
   238 ;;		Unchanged: 0/0
   239 ;; Data sizes:     COMRAM   BANK0   BANK1   BANK2   BANK3   BANK4   BANK5
   240 ;;      Params:         0       0       0       0       0       0       0
   241 ;;      Locals:         0       0       0       0       0       0       0
   242 ;;      Temps:          2       0       0       0       0       0       0
   243 ;;      Totals:         2       0       0       0       0       0       0
   244 ;;Total ram usage:        2 bytes
   245 ;; Hardware stack levels required when called:    4
   246 ;; This function calls:
   247 ;;		_BusyXLCD
   248 ;;		_LCD_inicio
   249 ;;		_SYSTEM_Initialize
   250 ;;		_SetDDRamAddr
   251 ;;		_WriteCmdXLCD
   252 ;;		_putrsXLCD
   253 ;; This function is called by:
   254 ;;		Startup code after reset
   255 ;; This function uses a non-reentrant model
   256 ;;
   257                           
   258                           	psect	text0
   259  000766                     __ptext0:
   260                           	callstack 0
   261  000766                     _main:
   262                           	callstack 27
   263  000766                     
   264                           ;main.c: 54:     SYSTEM_Initialize();
   265  000766  EC44  F005         	call	_SYSTEM_Initialize	;wreg free
   266  00076A                     
   267                           ;main.c: 56:     LCD_inicio();
   268  00076A  EC16  F005         	call	_LCD_inicio	;wreg free
   269  00076E                     l1392:
   270  00076E  ECC2  F004         	call	_BusyXLCD	;wreg free
   271  000772  0900               	iorlw	0
   272  000774  A4D8               	btfss	status,2,c
   273  000776  EFBF  F003         	goto	u371
   274  00077A  EFC1  F003         	goto	u370
   275  00077E                     u371:
   276  00077E  EFB7  F003         	goto	l1392
   277  000782                     u370:
   278  000782                     
   279                           ;main.c: 81:     SetDDRamAddr(0x80);
   280  000782  0E80               	movlw	128
   281  000784  EC6C  F004         	call	_SetDDRamAddr
   282  000788                     l1396:
   283  000788  ECC2  F004         	call	_BusyXLCD	;wreg free
   284  00078C  0900               	iorlw	0
   285  00078E  A4D8               	btfss	status,2,c
   286  000790  EFCC  F003         	goto	u381
   287  000794  EFCE  F003         	goto	u380
   288  000798                     u381:
   289  000798  EFC4  F003         	goto	l1396
   290  00079C                     u380:
   291  00079C                     
   292                           ;main.c: 84:     putrsXLCD("Rio Caribe ");
   293  00079C  0E1F               	movlw	low STR_1
   294  00079E  6E13               	movwf	putrsXLCD@buffer^0,c
   295  0007A0  0E06               	movlw	high STR_1
   296  0007A2  6E14               	movwf	(putrsXLCD@buffer+1)^0,c
   297  0007A4  EC33  F004         	call	_putrsXLCD	;wreg free
   298  0007A8                     
   299                           ;main.c: 85:     _delay((unsigned long)((2000)*(4000000/4000.0)));
   300  0007A8  0E0B               	movlw	11
   301  0007AA  6E19               	movwf	(??_main+1)^0,c
   302  0007AC  0E26               	movlw	38
   303  0007AE  6E18               	movwf	??_main^0,c
   304  0007B0  0E5E               	movlw	94
   305  0007B2                     u507:
   306  0007B2  2EE8               	decfsz	wreg,f,c
   307  0007B4  D7FE               	bra	u507
   308  0007B6  2E18               	decfsz	??_main^0,f,c
   309  0007B8  D7FC               	bra	u507
   310  0007BA  2E19               	decfsz	(??_main+1)^0,f,c
   311  0007BC  D7FA               	bra	u507
   312  0007BE                     l1402:
   313  0007BE  ECC2  F004         	call	_BusyXLCD	;wreg free
   314  0007C2  0900               	iorlw	0
   315  0007C4  A4D8               	btfss	status,2,c
   316  0007C6  EFE7  F003         	goto	u391
   317  0007CA  EFE9  F003         	goto	u390
   318  0007CE                     u391:
   319  0007CE  EFDF  F003         	goto	l1402
   320  0007D2                     u390:
   321  0007D2                     
   322                           ;main.c: 88:     SetDDRamAddr(0xC0);
   323  0007D2  0EC0               	movlw	192
   324  0007D4  EC6C  F004         	call	_SetDDRamAddr
   325  0007D8                     l1406:
   326  0007D8  ECC2  F004         	call	_BusyXLCD	;wreg free
   327  0007DC  0900               	iorlw	0
   328  0007DE  A4D8               	btfss	status,2,c
   329  0007E0  EFF4  F003         	goto	u401
   330  0007E4  EFF6  F003         	goto	u400
   331  0007E8                     u401:
   332  0007E8  EFEC  F003         	goto	l1406
   333  0007EC                     u400:
   334  0007EC                     
   335                           ;main.c: 91:     putrsXLCD(" Sucre ");
   336  0007EC  0E36               	movlw	low STR_2
   337  0007EE  6E13               	movwf	putrsXLCD@buffer^0,c
   338  0007F0  0E06               	movlw	high STR_2
   339  0007F2  6E14               	movwf	(putrsXLCD@buffer+1)^0,c
   340  0007F4  EC33  F004         	call	_putrsXLCD	;wreg free
   341  0007F8                     
   342                           ;main.c: 92:     _delay((unsigned long)((2000)*(4000000/4000.0)));
   343  0007F8  0E0B               	movlw	11
   344  0007FA  6E19               	movwf	(??_main+1)^0,c
   345  0007FC  0E26               	movlw	38
   346  0007FE  6E18               	movwf	??_main^0,c
   347  000800  0E5E               	movlw	94
   348  000802                     u517:
   349  000802  2EE8               	decfsz	wreg,f,c
   350  000804  D7FE               	bra	u517
   351  000806  2E18               	decfsz	??_main^0,f,c
   352  000808  D7FC               	bra	u517
   353  00080A  2E19               	decfsz	(??_main+1)^0,f,c
   354  00080C  D7FA               	bra	u517
   355  00080E                     l1412:
   356  00080E  ECC2  F004         	call	_BusyXLCD	;wreg free
   357  000812  0900               	iorlw	0
   358  000814  A4D8               	btfss	status,2,c
   359  000816  EF0F  F004         	goto	u411
   360  00081A  EF11  F004         	goto	u410
   361  00081E                     u411:
   362  00081E  EF07  F004         	goto	l1412
   363  000822                     u410:
   364  000822                     
   365                           ;main.c: 95:     WriteCmdXLCD(0x01);
   366  000822  0E01               	movlw	1
   367  000824  EC99  F004         	call	_WriteCmdXLCD
   368  000828  B089               	btfsc	137,0,c	;volatile
   369  00082A  EF19  F004         	goto	u421
   370  00082E  EF1C  F004         	goto	u420
   371  000832                     u421:
   372  000832  0E01               	movlw	1
   373  000834  EF1D  F004         	goto	u426
   374  000838                     u420:
   375  000838  0E00               	movlw	0
   376  00083A                     u426:
   377  00083A  0AFF               	xorlw	255
   378  00083C  6E18               	movwf	??_main^0,c
   379  00083E  5089               	movf	137,w,c	;volatile
   380  000840  1818               	xorwf	??_main^0,w,c
   381  000842  0BFE               	andlw	-2
   382  000844  1818               	xorwf	??_main^0,w,c
   383  000846  6E89               	movwf	137,c	;volatile
   384  000848                     
   385                           ;main.c: 99:         _delay((unsigned long)((500)*(4000000/4000.0)));
   386  000848  0E03               	movlw	3
   387  00084A  6E19               	movwf	(??_main+1)^0,c
   388  00084C  0E8A               	movlw	138
   389  00084E  6E18               	movwf	??_main^0,c
   390  000850  0E56               	movlw	86
   391  000852                     u527:
   392  000852  2EE8               	decfsz	wreg,f,c
   393  000854  D7FE               	bra	u527
   394  000856  2E18               	decfsz	??_main^0,f,c
   395  000858  D7FC               	bra	u527
   396  00085A  2E19               	decfsz	(??_main+1)^0,f,c
   397  00085C  D7FA               	bra	u527
   398  00085E  EFB7  F003         	goto	l1392
   399  000862  EF00  F000         	goto	start
   400  000866                     __end_of_main:
   401                           	callstack 0
   402                           
   403 ;; *************** function _putrsXLCD *****************
   404 ;; Defined at:
   405 ;;		line 16 in file "Lib_mias_all/microchip_LCD/putrxlcd.c"
   406 ;; Parameters:    Size  Location     Type
   407 ;;  buffer          2    1[COMRAM] PTR unsigned char 
   408 ;;		 -> STR_6(1), ftoat_mio@buf(17), STR_4(14), STR_3(16), 
   409 ;;		 -> STR_2(8), STR_1(12), 
   410 ;; Auto vars:     Size  Location     Type
   411 ;;		None
   412 ;; Return value:  Size  Location     Type
   413 ;;                  1    wreg      void 
   414 ;; Registers used:
   415 ;;		wreg, fsr0l, fsr0h, status,2, status,0, tblptrl, tblptrh, tblptru, cstack
   416 ;; Tracked objects:
   417 ;;		On entry : 0/0
   418 ;;		On exit  : 0/0
   419 ;;		Unchanged: 0/0
   420 ;; Data sizes:     COMRAM   BANK0   BANK1   BANK2   BANK3   BANK4   BANK5
   421 ;;      Params:         2       0       0       0       0       0       0
   422 ;;      Locals:         0       0       0       0       0       0       0
   423 ;;      Temps:          0       0       0       0       0       0       0
   424 ;;      Totals:         2       0       0       0       0       0       0
   425 ;;Total ram usage:        2 bytes
   426 ;; Hardware stack levels used:    1
   427 ;; Hardware stack levels required when called:    2
   428 ;; This function calls:
   429 ;;		_BusyXLCD
   430 ;;		_WriteDataXLCD
   431 ;; This function is called by:
   432 ;;		_main
   433 ;;		_saludo
   434 ;;		_escribe_float
   435 ;; This function uses a non-reentrant model
   436 ;;
   437                           
   438                           	psect	text1
   439  000866                     __ptext1:
   440                           	callstack 0
   441  000866                     _putrsXLCD:
   442                           	callstack 28
   443  000866                     
   444                           ;Lib_mias_all/microchip_LCD/putrxlcd.c: 16: void putrsXLCD(char *buffer);Lib_mias_all/mi
      +                          crochip_LCD/putrxlcd.c: 17: {;Lib_mias_all/microchip_LCD/putrxlcd.c: 18:         while(*
      +                          buffer)
   445  000866  EF53  F004         	goto	l1386
   446  00086A                     l1380:
   447  00086A  ECC2  F004         	call	_BusyXLCD	;wreg free
   448  00086E  0900               	iorlw	0
   449  000870  A4D8               	btfss	status,2,c
   450  000872  EF3D  F004         	goto	u331
   451  000876  EF3F  F004         	goto	u330
   452  00087A                     u331:
   453  00087A  EF35  F004         	goto	l1380
   454  00087E                     u330:
   455  00087E                     
   456                           ;Lib_mias_all/microchip_LCD/putrxlcd.c: 21:                 WriteDataXLCD(*buffer);
   457  00087E  C013  FFF6         	movff	putrsXLCD@buffer,tblptrl
   458  000882  C014  FFF7         	movff	putrsXLCD@buffer+1,tblptrh
   459  000886  6AF8               	clrf	tblptru,c
   460  000888  0E05               	movlw	(high __ramtop+-1)
   461  00088A  64F7               	cpfsgt	tblptrh,c
   462  00088C  D003               	bra	u347
   463  00088E  0008               	tblrd		*
   464  000890  50F5               	movf	tablat,w,c
   465  000892  D005               	bra	u340
   466  000894                     u347:
   467  000894  CFF6 FFE9          	movff	tblptrl,fsr0l
   468  000898  CFF7 FFEA          	movff	tblptrh,fsr0h
   469  00089C  50EF               	movf	indf0,w,c
   470  00089E                     u340:
   471  00089E  ECE5  F004         	call	_WriteDataXLCD
   472  0008A2                     
   473                           ;Lib_mias_all/microchip_LCD/putrxlcd.c: 22:                 buffer++;
   474  0008A2  4A13               	infsnz	putrsXLCD@buffer^0,f,c
   475  0008A4  2A14               	incf	(putrsXLCD@buffer+1)^0,f,c
   476  0008A6                     l1386:
   477                           
   478                           ;Lib_mias_all/microchip_LCD/putrxlcd.c: 18:         while(*buffer)
   479  0008A6  C013  FFF6         	movff	putrsXLCD@buffer,tblptrl
   480  0008AA  C014  FFF7         	movff	putrsXLCD@buffer+1,tblptrh
   481  0008AE  6AF8               	clrf	tblptru,c
   482  0008B0  0E05               	movlw	(high __ramtop+-1)
   483  0008B2  64F7               	cpfsgt	tblptrh,c
   484  0008B4  D003               	bra	u357
   485  0008B6  0008               	tblrd		*
   486  0008B8  50F5               	movf	tablat,w,c
   487  0008BA  D005               	bra	u350
   488  0008BC                     u357:
   489  0008BC  CFF6 FFE9          	movff	tblptrl,fsr0l
   490  0008C0  CFF7 FFEA          	movff	tblptrh,fsr0h
   491  0008C4  50EF               	movf	indf0,w,c
   492  0008C6                     u350:
   493  0008C6  0900               	iorlw	0
   494  0008C8  A4D8               	btfss	status,2,c
   495  0008CA  EF69  F004         	goto	u361
   496  0008CE  EF6B  F004         	goto	u360
   497  0008D2                     u361:
   498  0008D2  EF35  F004         	goto	l1380
   499  0008D6                     u360:
   500  0008D6  0012               	return		;funcret
   501  0008D8                     __end_of_putrsXLCD:
   502                           	callstack 0
   503                           
   504 ;; *************** function _WriteDataXLCD *****************
   505 ;; Defined at:
   506 ;;		line 16 in file "Lib_mias_all/microchip_LCD/writdata.c"
   507 ;; Parameters:    Size  Location     Type
   508 ;;  data            1    wreg     unsigned char 
   509 ;; Auto vars:     Size  Location     Type
   510 ;;  data            1    0[COMRAM] unsigned char 
   511 ;; Return value:  Size  Location     Type
   512 ;;                  1    wreg      void 
   513 ;; Registers used:
   514 ;;		wreg, status,2, status,0, cstack
   515 ;; Tracked objects:
   516 ;;		On entry : 0/0
   517 ;;		On exit  : 0/0
   518 ;;		Unchanged: 0/0
   519 ;; Data sizes:     COMRAM   BANK0   BANK1   BANK2   BANK3   BANK4   BANK5
   520 ;;      Params:         0       0       0       0       0       0       0
   521 ;;      Locals:         1       0       0       0       0       0       0
   522 ;;      Temps:          0       0       0       0       0       0       0
   523 ;;      Totals:         1       0       0       0       0       0       0
   524 ;;Total ram usage:        1 bytes
   525 ;; Hardware stack levels used:    1
   526 ;; Hardware stack levels required when called:    1
   527 ;; This function calls:
   528 ;;		_DelayFor18TCY
   529 ;; This function is called by:
   530 ;;		_putrsXLCD
   531 ;;		_putsXLCD
   532 ;; This function uses a non-reentrant model
   533 ;;
   534                           
   535                           	psect	text2
   536  0009CA                     __ptext2:
   537                           	callstack 0
   538  0009CA                     _WriteDataXLCD:
   539                           	callstack 28
   540                           
   541                           ;incstack = 0
   542                           ;WriteDataXLCD@data stored from wreg
   543  0009CA  6E12               	movwf	WriteDataXLCD@data^0,c
   544  0009CC                     
   545                           ;Lib_mias_all/microchip_LCD/writdata.c: 16: void WriteDataXLCD(char data);Lib_mias_all/m
      +                          icrochip_LCD/writdata.c: 17: {;Lib_mias_all/microchip_LCD/writdata.c: 35:         TRISB 
      +                          &= 0xf0;
   546  0009CC  0EF0               	movlw	240
   547  0009CE  1693               	andwf	147,f,c	;volatile
   548                           
   549                           ;Lib_mias_all/microchip_LCD/writdata.c: 36:         PORTB &= 0xf0;
   550  0009D0  0EF0               	movlw	240
   551  0009D2  1681               	andwf	129,f,c	;volatile
   552                           
   553                           ;Lib_mias_all/microchip_LCD/writdata.c: 37:         PORTB |= ((data>>4)&0x0f);
   554  0009D4  3812               	swapf	WriteDataXLCD@data^0,w,c
   555  0009D6  0B0F               	andlw	15
   556  0009D8  0B0F               	andlw	15
   557  0009DA  1281               	iorwf	129,f,c	;volatile
   558  0009DC                     
   559                           ;Lib_mias_all/microchip_LCD/writdata.c: 39:         LATCbits.LATC0 = 1;
   560  0009DC  808B               	bsf	139,0,c	;volatile
   561  0009DE                     
   562                           ;Lib_mias_all/microchip_LCD/writdata.c: 40:         LATBbits.LATB5 = 0;
   563  0009DE  9A8A               	bcf	138,5,c	;volatile
   564  0009E0                     
   565                           ;Lib_mias_all/microchip_LCD/writdata.c: 41:         DelayFor18TCY();
   566  0009E0  EC3E  F005         	call	_DelayFor18TCY	;wreg free
   567  0009E4                     
   568                           ;Lib_mias_all/microchip_LCD/writdata.c: 42:         LATBbits.LATB6 = 1;
   569  0009E4  8C8A               	bsf	138,6,c	;volatile
   570  0009E6                     
   571                           ;Lib_mias_all/microchip_LCD/writdata.c: 43:         DelayFor18TCY();
   572  0009E6  EC3E  F005         	call	_DelayFor18TCY	;wreg free
   573  0009EA                     
   574                           ;Lib_mias_all/microchip_LCD/writdata.c: 44:         LATBbits.LATB6 = 0;
   575  0009EA  9C8A               	bcf	138,6,c	;volatile
   576                           
   577                           ;Lib_mias_all/microchip_LCD/writdata.c: 49:         PORTB &= 0xf0;
   578  0009EC  0EF0               	movlw	240
   579  0009EE  1681               	andwf	129,f,c	;volatile
   580                           
   581                           ;Lib_mias_all/microchip_LCD/writdata.c: 50:         PORTB |= (data&0x0f);
   582  0009F0  5012               	movf	WriteDataXLCD@data^0,w,c
   583  0009F2  0B0F               	andlw	15
   584  0009F4  1281               	iorwf	129,f,c	;volatile
   585  0009F6                     
   586                           ;Lib_mias_all/microchip_LCD/writdata.c: 52:         DelayFor18TCY();
   587  0009F6  EC3E  F005         	call	_DelayFor18TCY	;wreg free
   588  0009FA                     
   589                           ;Lib_mias_all/microchip_LCD/writdata.c: 53:         LATBbits.LATB6 = 1;
   590  0009FA  8C8A               	bsf	138,6,c	;volatile
   591  0009FC                     
   592                           ;Lib_mias_all/microchip_LCD/writdata.c: 54:         DelayFor18TCY();
   593  0009FC  EC3E  F005         	call	_DelayFor18TCY	;wreg free
   594  000A00                     
   595                           ;Lib_mias_all/microchip_LCD/writdata.c: 55:         LATBbits.LATB6 = 0;
   596  000A00  9C8A               	bcf	138,6,c	;volatile
   597                           
   598                           ;Lib_mias_all/microchip_LCD/writdata.c: 59:         TRISB |= 0x0f;
   599  000A02  0E0F               	movlw	15
   600  000A04  1293               	iorwf	147,f,c	;volatile
   601  000A06  0012               	return		;funcret
   602  000A08                     __end_of_WriteDataXLCD:
   603                           	callstack 0
   604                           
   605 ;; *************** function _SYSTEM_Initialize *****************
   606 ;; Defined at:
   607 ;;		line 50 in file "mcc_generated_files/mcc.c"
   608 ;; Parameters:    Size  Location     Type
   609 ;;		None
   610 ;; Auto vars:     Size  Location     Type
   611 ;;		None
   612 ;; Return value:  Size  Location     Type
   613 ;;                  1    wreg      void 
   614 ;; Registers used:
   615 ;;		wreg, status,2, cstack
   616 ;; Tracked objects:
   617 ;;		On entry : 0/0
   618 ;;		On exit  : 0/0
   619 ;;		Unchanged: 0/0
   620 ;; Data sizes:     COMRAM   BANK0   BANK1   BANK2   BANK3   BANK4   BANK5
   621 ;;      Params:         0       0       0       0       0       0       0
   622 ;;      Locals:         0       0       0       0       0       0       0
   623 ;;      Temps:          0       0       0       0       0       0       0
   624 ;;      Totals:         0       0       0       0       0       0       0
   625 ;;Total ram usage:        0 bytes
   626 ;; Hardware stack levels used:    1
   627 ;; Hardware stack levels required when called:    1
   628 ;; This function calls:
   629 ;;		_OSCILLATOR_Initialize
   630 ;;		_PIN_MANAGER_Initialize
   631 ;; This function is called by:
   632 ;;		_main
   633 ;; This function uses a non-reentrant model
   634 ;;
   635                           
   636                           	psect	text3
   637  000A88                     __ptext3:
   638                           	callstack 0
   639  000A88                     _SYSTEM_Initialize:
   640                           	callstack 29
   641  000A88                     
   642                           ;mcc_generated_files/mcc.c: 53:     PIN_MANAGER_Initialize();
   643  000A88  EC04  F005         	call	_PIN_MANAGER_Initialize	;wreg free
   644                           
   645                           ;mcc_generated_files/mcc.c: 54:     OSCILLATOR_Initialize();
   646  000A8C  EC49  F005         	call	_OSCILLATOR_Initialize	;wreg free
   647  000A90  0012               	return		;funcret
   648  000A92                     __end_of_SYSTEM_Initialize:
   649                           	callstack 0
   650                           
   651 ;; *************** function _PIN_MANAGER_Initialize *****************
   652 ;; Defined at:
   653 ;;		line 55 in file "mcc_generated_files/pin_manager.c"
   654 ;; Parameters:    Size  Location     Type
   655 ;;		None
   656 ;; Auto vars:     Size  Location     Type
   657 ;;		None
   658 ;; Return value:  Size  Location     Type
   659 ;;                  1    wreg      void 
   660 ;; Registers used:
   661 ;;		wreg, status,2
   662 ;; Tracked objects:
   663 ;;		On entry : 0/0
   664 ;;		On exit  : 0/0
   665 ;;		Unchanged: 0/0
   666 ;; Data sizes:     COMRAM   BANK0   BANK1   BANK2   BANK3   BANK4   BANK5
   667 ;;      Params:         0       0       0       0       0       0       0
   668 ;;      Locals:         0       0       0       0       0       0       0
   669 ;;      Temps:          0       0       0       0       0       0       0
   670 ;;      Totals:         0       0       0       0       0       0       0
   671 ;;Total ram usage:        0 bytes
   672 ;; Hardware stack levels used:    1
   673 ;; This function calls:
   674 ;;		Nothing
   675 ;; This function is called by:
   676 ;;		_SYSTEM_Initialize
   677 ;; This function uses a non-reentrant model
   678 ;;
   679                           
   680                           	psect	text4
   681  000A08                     __ptext4:
   682                           	callstack 0
   683  000A08                     _PIN_MANAGER_Initialize:
   684                           	callstack 29
   685  000A08                     
   686                           ;mcc_generated_files/pin_manager.c: 60:     LATA = 0x02;
   687  000A08  0E02               	movlw	2
   688  000A0A  6E89               	movwf	137,c	;volatile
   689                           
   690                           ;mcc_generated_files/pin_manager.c: 61:     LATB = 0x00;
   691  000A0C  0E00               	movlw	0
   692  000A0E  6E8A               	movwf	138,c	;volatile
   693                           
   694                           ;mcc_generated_files/pin_manager.c: 62:     LATC = 0x00;
   695  000A10  0E00               	movlw	0
   696  000A12  6E8B               	movwf	139,c	;volatile
   697                           
   698                           ;mcc_generated_files/pin_manager.c: 67:     TRISA = 0xFC;
   699  000A14  0EFC               	movlw	252
   700  000A16  6E92               	movwf	146,c	;volatile
   701  000A18                     
   702                           ;mcc_generated_files/pin_manager.c: 68:     TRISB = 0xFF;
   703  000A18  6893               	setf	147,c	;volatile
   704  000A1A                     
   705                           ;mcc_generated_files/pin_manager.c: 69:     TRISC = 0xFF;
   706  000A1A  6894               	setf	148,c	;volatile
   707                           
   708                           ;mcc_generated_files/pin_manager.c: 74:     ANSEL = 0x1C;
   709  000A1C  0E1C               	movlw	28
   710  000A1E  6E7E               	movwf	126,c	;volatile
   711                           
   712                           ;mcc_generated_files/pin_manager.c: 75:     ANSELH = 0x1F;
   713  000A20  0E1F               	movlw	31
   714  000A22  6E7F               	movwf	127,c	;volatile
   715                           
   716                           ;mcc_generated_files/pin_manager.c: 80:     WPUB = 0x00;
   717  000A24  0E00               	movlw	0
   718  000A26  6E7C               	movwf	124,c	;volatile
   719  000A28                     
   720                           ;mcc_generated_files/pin_manager.c: 81:     INTCON2bits.nRBPU = 1;
   721  000A28  8EF1               	bsf	241,7,c	;volatile
   722  000A2A  0012               	return		;funcret
   723  000A2C                     __end_of_PIN_MANAGER_Initialize:
   724                           	callstack 0
   725                           
   726 ;; *************** function _OSCILLATOR_Initialize *****************
   727 ;; Defined at:
   728 ;;		line 57 in file "mcc_generated_files/mcc.c"
   729 ;; Parameters:    Size  Location     Type
   730 ;;		None
   731 ;; Auto vars:     Size  Location     Type
   732 ;;		None
   733 ;; Return value:  Size  Location     Type
   734 ;;                  1    wreg      void 
   735 ;; Registers used:
   736 ;;		wreg, status,2
   737 ;; Tracked objects:
   738 ;;		On entry : 0/0
   739 ;;		On exit  : 0/0
   740 ;;		Unchanged: 0/0
   741 ;; Data sizes:     COMRAM   BANK0   BANK1   BANK2   BANK3   BANK4   BANK5
   742 ;;      Params:         0       0       0       0       0       0       0
   743 ;;      Locals:         0       0       0       0       0       0       0
   744 ;;      Temps:          0       0       0       0       0       0       0
   745 ;;      Totals:         0       0       0       0       0       0       0
   746 ;;Total ram usage:        0 bytes
   747 ;; Hardware stack levels used:    1
   748 ;; This function calls:
   749 ;;		Nothing
   750 ;; This function is called by:
   751 ;;		_SYSTEM_Initialize
   752 ;; This function uses a non-reentrant model
   753 ;;
   754                           
   755                           	psect	text5
   756  000A92                     __ptext5:
   757                           	callstack 0
   758  000A92                     _OSCILLATOR_Initialize:
   759                           	callstack 29
   760  000A92                     
   761                           ;mcc_generated_files/mcc.c: 60:     OSCCON = 0x30;
   762  000A92  0E30               	movlw	48
   763  000A94  6ED3               	movwf	211,c	;volatile
   764                           
   765                           ;mcc_generated_files/mcc.c: 62:     OSCTUNE = 0x00;
   766  000A96  0E00               	movlw	0
   767  000A98  6E9B               	movwf	155,c	;volatile
   768  000A9A  0012               	return		;funcret
   769  000A9C                     __end_of_OSCILLATOR_Initialize:
   770                           	callstack 0
   771                           
   772 ;; *************** function _LCD_inicio *****************
   773 ;; Defined at:
   774 ;;		line 8 in file "Lib_mias_all/microchip_LCD/LCD_inicio.c"
   775 ;; Parameters:    Size  Location     Type
   776 ;;		None
   777 ;; Auto vars:     Size  Location     Type
   778 ;;		None
   779 ;; Return value:  Size  Location     Type
   780 ;;                  1    wreg      void 
   781 ;; Registers used:
   782 ;;		wreg, status,2, status,0, cstack
   783 ;; Tracked objects:
   784 ;;		On entry : 0/0
   785 ;;		On exit  : 0/0
   786 ;;		Unchanged: 0/0
   787 ;; Data sizes:     COMRAM   BANK0   BANK1   BANK2   BANK3   BANK4   BANK5
   788 ;;      Params:         0       0       0       0       0       0       0
   789 ;;      Locals:         0       0       0       0       0       0       0
   790 ;;      Temps:          0       0       0       0       0       0       0
   791 ;;      Totals:         0       0       0       0       0       0       0
   792 ;;Total ram usage:        0 bytes
   793 ;; Hardware stack levels used:    1
   794 ;; Hardware stack levels required when called:    3
   795 ;; This function calls:
   796 ;;		_DelayXLCD
   797 ;;		_OpenXLCD
   798 ;;		_WriteCmdXLCD
   799 ;; This function is called by:
   800 ;;		_main
   801 ;; This function uses a non-reentrant model
   802 ;;
   803                           
   804                           	psect	text6
   805  000A2C                     __ptext6:
   806                           	callstack 0
   807  000A2C                     _LCD_inicio:
   808                           	callstack 27
   809  000A2C                     
   810                           ;Lib_mias_all/microchip_LCD/LCD_inicio.c: 11: OpenXLCD(0b00101100 & 0b00111000);
   811  000A2C  0E28               	movlw	40
   812  000A2E  EC20  F003         	call	_OpenXLCD
   813                           
   814                           ;Lib_mias_all/microchip_LCD/LCD_inicio.c: 12: WriteCmdXLCD(0b00000110);
   815  000A32  0E06               	movlw	6
   816  000A34  EC99  F004         	call	_WriteCmdXLCD
   817                           
   818                           ;Lib_mias_all/microchip_LCD/LCD_inicio.c: 13: WriteCmdXLCD(0b00001110);
   819  000A38  0E0E               	movlw	14
   820  000A3A  EC99  F004         	call	_WriteCmdXLCD
   821  000A3E                     
   822                           ;Lib_mias_all/microchip_LCD/LCD_inicio.c: 14: DelayXLCD();
   823  000A3E  EC2D  F005         	call	_DelayXLCD	;wreg free
   824  000A42  0012               	return		;funcret
   825  000A44                     __end_of_LCD_inicio:
   826                           	callstack 0
   827                           
   828 ;; *************** function _OpenXLCD *****************
   829 ;; Defined at:
   830 ;;		line 20 in file "Lib_mias_all/microchip_LCD/openxlcd.c"
   831 ;; Parameters:    Size  Location     Type
   832 ;;  lcdtype         1    wreg     unsigned char 
   833 ;; Auto vars:     Size  Location     Type
   834 ;;  lcdtype         1    5[COMRAM] unsigned char 
   835 ;; Return value:  Size  Location     Type
   836 ;;                  1    wreg      void 
   837 ;; Registers used:
   838 ;;		wreg, status,2, status,0, cstack
   839 ;; Tracked objects:
   840 ;;		On entry : 0/0
   841 ;;		On exit  : 0/0
   842 ;;		Unchanged: 0/0
   843 ;; Data sizes:     COMRAM   BANK0   BANK1   BANK2   BANK3   BANK4   BANK5
   844 ;;      Params:         0       0       0       0       0       0       0
   845 ;;      Locals:         1       0       0       0       0       0       0
   846 ;;      Temps:          1       0       0       0       0       0       0
   847 ;;      Totals:         2       0       0       0       0       0       0
   848 ;;Total ram usage:        2 bytes
   849 ;; Hardware stack levels used:    1
   850 ;; Hardware stack levels required when called:    2
   851 ;; This function calls:
   852 ;;		_BusyXLCD
   853 ;;		_SetDDRamAddr
   854 ;;		_WriteCmdXLCD
   855 ;; This function is called by:
   856 ;;		_LCD_inicio
   857 ;; This function uses a non-reentrant model
   858 ;;
   859                           
   860                           	psect	text7
   861  000640                     __ptext7:
   862                           	callstack 0
   863  000640                     _OpenXLCD:
   864                           	callstack 27
   865                           
   866                           ;incstack = 0
   867                           ;OpenXLCD@lcdtype stored from wreg
   868  000640  6E17               	movwf	OpenXLCD@lcdtype^0,c
   869  000642                     
   870                           ;Lib_mias_all/microchip_LCD/openxlcd.c: 20: void OpenXLCD(unsigned char lcdtype);Lib_mia
      +                          s_all/microchip_LCD/openxlcd.c: 21: {;Lib_mias_all/microchip_LCD/openxlcd.c: 32:        
      +                           PORTB &= 0xf0;
   871  000642  0EF0               	movlw	240
   872  000644  1681               	andwf	129,f,c	;volatile
   873                           
   874                           ;Lib_mias_all/microchip_LCD/openxlcd.c: 33:         TRISB &= 0xF0;
   875  000646  0EF0               	movlw	240
   876  000648  1693               	andwf	147,f,c	;volatile
   877  00064A                     
   878                           ;Lib_mias_all/microchip_LCD/openxlcd.c: 36:         TRISBbits.TRISB5 = 0;
   879  00064A  9A93               	bcf	147,5,c	;volatile
   880  00064C                     
   881                           ;Lib_mias_all/microchip_LCD/openxlcd.c: 37:         TRISCbits.TRISC0 = 0;
   882  00064C  9094               	bcf	148,0,c	;volatile
   883  00064E                     
   884                           ;Lib_mias_all/microchip_LCD/openxlcd.c: 38:         TRISBbits.TRISB6 = 0;
   885  00064E  9C93               	bcf	147,6,c	;volatile
   886  000650                     
   887                           ;Lib_mias_all/microchip_LCD/openxlcd.c: 39:         LATBbits.LATB5 = 0;
   888  000650  9A8A               	bcf	138,5,c	;volatile
   889  000652                     
   890                           ;Lib_mias_all/microchip_LCD/openxlcd.c: 40:         LATCbits.LATC0 = 0;
   891  000652  908B               	bcf	139,0,c	;volatile
   892  000654                     
   893                           ;Lib_mias_all/microchip_LCD/openxlcd.c: 41:         LATBbits.LATB6 = 0;
   894  000654  9C8A               	bcf	138,6,c	;volatile
   895  000656                     
   896                           ;Lib_mias_all/microchip_LCD/openxlcd.c: 45:         _delay((unsigned long)((15)*(4000000
      +                          /4000.0)));
   897  000656  0E14               	movlw	20
   898  000658  6E16               	movwf	??_OpenXLCD^0,c
   899  00065A  0E7A               	movlw	122
   900  00065C                     u537:
   901  00065C  2EE8               	decfsz	wreg,f,c
   902  00065E  D7FE               	bra	u537
   903  000660  2E16               	decfsz	??_OpenXLCD^0,f,c
   904  000662  D7FC               	bra	u537
   905  000664                     
   906                           ;Lib_mias_all/microchip_LCD/openxlcd.c: 50:   WriteCmdXLCD(0x30);
   907  000664  0E30               	movlw	48
   908  000666  EC99  F004         	call	_WriteCmdXLCD
   909  00066A                     
   910                           ;Lib_mias_all/microchip_LCD/openxlcd.c: 51:         _delay((unsigned long)((5)*(4000000/
      +                          4000.0)));
   911  00066A  0E07               	movlw	7
   912  00066C  6E16               	movwf	??_OpenXLCD^0,c
   913  00066E  0E7D               	movlw	125
   914  000670                     u547:
   915  000670  2EE8               	decfsz	wreg,f,c
   916  000672  D7FE               	bra	u547
   917  000674  2E16               	decfsz	??_OpenXLCD^0,f,c
   918  000676  D7FC               	bra	u547
   919  000678  F000               	nop	
   920  00067A                     
   921                           ;Lib_mias_all/microchip_LCD/openxlcd.c: 55:   WriteCmdXLCD(0x30);
   922  00067A  0E30               	movlw	48
   923  00067C  EC99  F004         	call	_WriteCmdXLCD
   924  000680                     
   925                           ;Lib_mias_all/microchip_LCD/openxlcd.c: 56:         _delay((unsigned long)((100)*(400000
      +                          0/4000000.0)));
   926  000680  0E21               	movlw	33
   927  000682                     u557:
   928  000682  2EE8               	decfsz	wreg,f,c
   929  000684  D7FE               	bra	u557
   930  000686  F000               	nop	
   931  000688                     
   932                           ;Lib_mias_all/microchip_LCD/openxlcd.c: 61:         WriteCmdXLCD(0x30);
   933  000688  0E30               	movlw	48
   934  00068A  EC99  F004         	call	_WriteCmdXLCD
   935  00068E                     
   936                           ;Lib_mias_all/microchip_LCD/openxlcd.c: 62:         _delay((unsigned long)((30)*(4000000
      +                          /4000000.0)));
   937  00068E  0E0A               	movlw	10
   938  000690                     u567:
   939  000690  2EE8               	decfsz	wreg,f,c
   940  000692  D7FE               	bra	u567
   941  000694                     l1128:
   942                           
   943                           ;Lib_mias_all/microchip_LCD/openxlcd.c: 65:   while( BusyXLCD() )
   944  000694  ECC2  F004         	call	_BusyXLCD	;wreg free
   945  000698  0900               	iorlw	0
   946  00069A  A4D8               	btfss	status,2,c
   947  00069C  EF52  F003         	goto	u41
   948  0006A0  EF54  F003         	goto	u40
   949  0006A4                     u41:
   950  0006A4  EF4A  F003         	goto	l1128
   951  0006A8                     u40:
   952  0006A8                     
   953                           ;Lib_mias_all/microchip_LCD/openxlcd.c: 67:         WriteCmdXLCD(0x32);
   954  0006A8  0E32               	movlw	50
   955  0006AA  EC99  F004         	call	_WriteCmdXLCD
   956  0006AE                     l1132:
   957  0006AE  ECC2  F004         	call	_BusyXLCD	;wreg free
   958  0006B2  0900               	iorlw	0
   959  0006B4  A4D8               	btfss	status,2,c
   960  0006B6  EF5F  F003         	goto	u51
   961  0006BA  EF61  F003         	goto	u50
   962  0006BE                     u51:
   963  0006BE  EF57  F003         	goto	l1132
   964  0006C2                     u50:
   965  0006C2                     
   966                           ;Lib_mias_all/microchip_LCD/openxlcd.c: 73:         WriteCmdXLCD(lcdtype);
   967  0006C2  5017               	movf	OpenXLCD@lcdtype^0,w,c
   968  0006C4  EC99  F004         	call	_WriteCmdXLCD
   969  0006C8                     l1136:
   970  0006C8  ECC2  F004         	call	_BusyXLCD	;wreg free
   971  0006CC  0900               	iorlw	0
   972  0006CE  A4D8               	btfss	status,2,c
   973  0006D0  EF6C  F003         	goto	u61
   974  0006D4  EF6E  F003         	goto	u60
   975  0006D8                     u61:
   976  0006D8  EF64  F003         	goto	l1136
   977  0006DC                     u60:
   978  0006DC                     
   979                           ;Lib_mias_all/microchip_LCD/openxlcd.c: 77:         WriteCmdXLCD(0b00001011&0b00001101&0
      +                          b00001110);
   980  0006DC  0E08               	movlw	8
   981  0006DE  EC99  F004         	call	_WriteCmdXLCD
   982  0006E2                     l1140:
   983  0006E2  ECC2  F004         	call	_BusyXLCD	;wreg free
   984  0006E6  0900               	iorlw	0
   985  0006E8  A4D8               	btfss	status,2,c
   986  0006EA  EF79  F003         	goto	u71
   987  0006EE  EF7B  F003         	goto	u70
   988  0006F2                     u71:
   989  0006F2  EF71  F003         	goto	l1140
   990  0006F6                     u70:
   991  0006F6                     
   992                           ;Lib_mias_all/microchip_LCD/openxlcd.c: 79:         WriteCmdXLCD(0b00001111&0b00001111&0
      +                          b00001111);
   993  0006F6  0E0F               	movlw	15
   994  0006F8  EC99  F004         	call	_WriteCmdXLCD
   995  0006FC                     l1144:
   996  0006FC  ECC2  F004         	call	_BusyXLCD	;wreg free
   997  000700  0900               	iorlw	0
   998  000702  A4D8               	btfss	status,2,c
   999  000704  EF86  F003         	goto	u81
  1000  000708  EF88  F003         	goto	u80
  1001  00070C                     u81:
  1002  00070C  EF7E  F003         	goto	l1144
  1003  000710                     u80:
  1004  000710                     
  1005                           ;Lib_mias_all/microchip_LCD/openxlcd.c: 83:         WriteCmdXLCD(0x01);
  1006  000710  0E01               	movlw	1
  1007  000712  EC99  F004         	call	_WriteCmdXLCD
  1008  000716                     l1148:
  1009  000716  ECC2  F004         	call	_BusyXLCD	;wreg free
  1010  00071A  0900               	iorlw	0
  1011  00071C  A4D8               	btfss	status,2,c
  1012  00071E  EF93  F003         	goto	u91
  1013  000722  EF95  F003         	goto	u90
  1014  000726                     u91:
  1015  000726  EF8B  F003         	goto	l1148
  1016  00072A                     u90:
  1017  00072A                     
  1018                           ;Lib_mias_all/microchip_LCD/openxlcd.c: 87:         WriteCmdXLCD(0b00000100);
  1019  00072A  0E04               	movlw	4
  1020  00072C  EC99  F004         	call	_WriteCmdXLCD
  1021  000730                     l1152:
  1022  000730  ECC2  F004         	call	_BusyXLCD	;wreg free
  1023  000734  0900               	iorlw	0
  1024  000736  A4D8               	btfss	status,2,c
  1025  000738  EFA0  F003         	goto	u101
  1026  00073C  EFA2  F003         	goto	u100
  1027  000740                     u101:
  1028  000740  EF98  F003         	goto	l1152
  1029  000744                     u100:
  1030  000744                     
  1031                           ;Lib_mias_all/microchip_LCD/openxlcd.c: 91:         SetDDRamAddr(0x80);
  1032  000744  0E80               	movlw	128
  1033  000746  EC6C  F004         	call	_SetDDRamAddr
  1034  00074A                     l1156:
  1035  00074A  ECC2  F004         	call	_BusyXLCD	;wreg free
  1036  00074E  0900               	iorlw	0
  1037  000750  A4D8               	btfss	status,2,c
  1038  000752  EFAD  F003         	goto	u111
  1039  000756  EFAF  F003         	goto	u110
  1040  00075A                     u111:
  1041  00075A  EFA5  F003         	goto	l1156
  1042  00075E                     u110:
  1043  00075E                     
  1044                           ;Lib_mias_all/microchip_LCD/openxlcd.c: 95:         WriteCmdXLCD(0b00001111&0b00001111&0
      +                          b00001111);
  1045  00075E  0E0F               	movlw	15
  1046  000760  EC99  F004         	call	_WriteCmdXLCD
  1047  000764  0012               	return		;funcret
  1048  000766                     __end_of_OpenXLCD:
  1049                           	callstack 0
  1050                           
  1051 ;; *************** function _WriteCmdXLCD *****************
  1052 ;; Defined at:
  1053 ;;		line 13 in file "Lib_mias_all/microchip_LCD/wcmdxlcd.c"
  1054 ;; Parameters:    Size  Location     Type
  1055 ;;  cmd             1    wreg     unsigned char 
  1056 ;; Auto vars:     Size  Location     Type
  1057 ;;  cmd             1    1[COMRAM] unsigned char 
  1058 ;; Return value:  Size  Location     Type
  1059 ;;                  1    wreg      void 
  1060 ;; Registers used:
  1061 ;;		wreg, status,2, status,0, cstack
  1062 ;; Tracked objects:
  1063 ;;		On entry : 0/0
  1064 ;;		On exit  : 0/0
  1065 ;;		Unchanged: 0/0
  1066 ;; Data sizes:     COMRAM   BANK0   BANK1   BANK2   BANK3   BANK4   BANK5
  1067 ;;      Params:         0       0       0       0       0       0       0
  1068 ;;      Locals:         1       0       0       0       0       0       0
  1069 ;;      Temps:          0       0       0       0       0       0       0
  1070 ;;      Totals:         1       0       0       0       0       0       0
  1071 ;;Total ram usage:        1 bytes
  1072 ;; Hardware stack levels used:    1
  1073 ;; Hardware stack levels required when called:    1
  1074 ;; This function calls:
  1075 ;;		_DelayFor18TCY
  1076 ;;		_DelayPORXLCD
  1077 ;; This function is called by:
  1078 ;;		_LCD_inicio
  1079 ;;		_OpenXLCD
  1080 ;;		_main
  1081 ;;		_saludo
  1082 ;; This function uses a non-reentrant model
  1083 ;;
  1084                           
  1085                           	psect	text8
  1086  000932                     __ptext8:
  1087                           	callstack 0
  1088  000932                     _WriteCmdXLCD:
  1089                           	callstack 29
  1090                           
  1091                           ;incstack = 0
  1092                           ;WriteCmdXLCD@cmd stored from wreg
  1093  000932  6E13               	movwf	WriteCmdXLCD@cmd^0,c
  1094  000934                     
  1095                           ;Lib_mias_all/microchip_LCD/wcmdxlcd.c: 13: void WriteCmdXLCD(unsigned char cmd);Lib_mia
      +                          s_all/microchip_LCD/wcmdxlcd.c: 14: {;Lib_mias_all/microchip_LCD/wcmdxlcd.c: 32:        
      +                           TRISB &= 0xf0;
  1096  000934  0EF0               	movlw	240
  1097  000936  1693               	andwf	147,f,c	;volatile
  1098                           
  1099                           ;Lib_mias_all/microchip_LCD/wcmdxlcd.c: 33:         PORTB &= 0xf0;
  1100  000938  0EF0               	movlw	240
  1101  00093A  1681               	andwf	129,f,c	;volatile
  1102                           
  1103                           ;Lib_mias_all/microchip_LCD/wcmdxlcd.c: 34:         PORTB |= (cmd>>4)&0x0f;
  1104  00093C  3813               	swapf	WriteCmdXLCD@cmd^0,w,c
  1105  00093E  0B0F               	andlw	15
  1106  000940  0B0F               	andlw	15
  1107  000942  1281               	iorwf	129,f,c	;volatile
  1108  000944                     
  1109                           ;Lib_mias_all/microchip_LCD/wcmdxlcd.c: 36:         LATBbits.LATB5 = 0;
  1110  000944  9A8A               	bcf	138,5,c	;volatile
  1111  000946                     
  1112                           ;Lib_mias_all/microchip_LCD/wcmdxlcd.c: 37:         LATCbits.LATC0 = 0;
  1113  000946  908B               	bcf	139,0,c	;volatile
  1114  000948                     
  1115                           ;Lib_mias_all/microchip_LCD/wcmdxlcd.c: 38:         DelayFor18TCY();
  1116  000948  EC3E  F005         	call	_DelayFor18TCY	;wreg free
  1117  00094C                     
  1118                           ;Lib_mias_all/microchip_LCD/wcmdxlcd.c: 39:         LATBbits.LATB6 = 1;
  1119  00094C  8C8A               	bsf	138,6,c	;volatile
  1120  00094E                     
  1121                           ;Lib_mias_all/microchip_LCD/wcmdxlcd.c: 40:         DelayFor18TCY();
  1122  00094E  EC3E  F005         	call	_DelayFor18TCY	;wreg free
  1123  000952                     
  1124                           ;Lib_mias_all/microchip_LCD/wcmdxlcd.c: 41:         LATBbits.LATB6 = 0;
  1125  000952  9C8A               	bcf	138,6,c	;volatile
  1126                           
  1127                           ;Lib_mias_all/microchip_LCD/wcmdxlcd.c: 46:         PORTB &= 0xf0;
  1128  000954  0EF0               	movlw	240
  1129  000956  1681               	andwf	129,f,c	;volatile
  1130                           
  1131                           ;Lib_mias_all/microchip_LCD/wcmdxlcd.c: 47:         PORTB |= cmd&0x0f;
  1132  000958  5013               	movf	WriteCmdXLCD@cmd^0,w,c
  1133  00095A  0B0F               	andlw	15
  1134  00095C  1281               	iorwf	129,f,c	;volatile
  1135  00095E                     
  1136                           ;Lib_mias_all/microchip_LCD/wcmdxlcd.c: 49:         DelayFor18TCY();
  1137  00095E  EC3E  F005         	call	_DelayFor18TCY	;wreg free
  1138  000962                     
  1139                           ;Lib_mias_all/microchip_LCD/wcmdxlcd.c: 50:         LATBbits.LATB6 = 1;
  1140  000962  8C8A               	bsf	138,6,c	;volatile
  1141  000964                     
  1142                           ;Lib_mias_all/microchip_LCD/wcmdxlcd.c: 51:         DelayFor18TCY();
  1143  000964  EC3E  F005         	call	_DelayFor18TCY	;wreg free
  1144  000968                     
  1145                           ;Lib_mias_all/microchip_LCD/wcmdxlcd.c: 52:         LATBbits.LATB6 = 0;
  1146  000968  9C8A               	bcf	138,6,c	;volatile
  1147                           
  1148                           ;Lib_mias_all/microchip_LCD/wcmdxlcd.c: 56:         TRISB |= 0x0f;
  1149  00096A  0E0F               	movlw	15
  1150  00096C  1293               	iorwf	147,f,c	;volatile
  1151                           
  1152                           ;Lib_mias_all/microchip_LCD/wcmdxlcd.c: 59:         if (cmd == 0x01){
  1153  00096E  0413               	decf	WriteCmdXLCD@cmd^0,w,c
  1154  000970  A4D8               	btfss	status,2,c
  1155  000972  EFBD  F004         	goto	u21
  1156  000976  EFBF  F004         	goto	u20
  1157  00097A                     u21:
  1158  00097A  EFC1  F004         	goto	l212
  1159  00097E                     u20:
  1160  00097E                     
  1161                           ;Lib_mias_all/microchip_LCD/wcmdxlcd.c: 60:             DelayPORXLCD();
  1162  00097E  EC36  F005         	call	_DelayPORXLCD	;wreg free
  1163  000982                     l212:
  1164  000982  0012               	return		;funcret
  1165  000984                     __end_of_WriteCmdXLCD:
  1166                           	callstack 0
  1167                           
  1168 ;; *************** function _DelayPORXLCD *****************
  1169 ;; Defined at:
  1170 ;;		line 69 in file "Lib_mias_all/microchip_LCD/delay_xlcd.c"
  1171 ;; Parameters:    Size  Location     Type
  1172 ;;		None
  1173 ;; Auto vars:     Size  Location     Type
  1174 ;;		None
  1175 ;; Return value:  Size  Location     Type
  1176 ;;                  1    wreg      void 
  1177 ;; Registers used:
  1178 ;;		wreg
  1179 ;; Tracked objects:
  1180 ;;		On entry : 0/0
  1181 ;;		On exit  : 0/0
  1182 ;;		Unchanged: 0/0
  1183 ;; Data sizes:     COMRAM   BANK0   BANK1   BANK2   BANK3   BANK4   BANK5
  1184 ;;      Params:         0       0       0       0       0       0       0
  1185 ;;      Locals:         0       0       0       0       0       0       0
  1186 ;;      Temps:          1       0       0       0       0       0       0
  1187 ;;      Totals:         1       0       0       0       0       0       0
  1188 ;;Total ram usage:        1 bytes
  1189 ;; Hardware stack levels used:    1
  1190 ;; This function calls:
  1191 ;;		Nothing
  1192 ;; This function is called by:
  1193 ;;		_WriteCmdXLCD
  1194 ;; This function uses a non-reentrant model
  1195 ;;
  1196                           
  1197                           	psect	text9
  1198  000A6C                     __ptext9:
  1199                           	callstack 0
  1200  000A6C                     _DelayPORXLCD:
  1201                           	callstack 29
  1202  000A6C                     
  1203                           ;Lib_mias_all/microchip_LCD/delay_xlcd.c: 70:     _delay((unsigned long)((15)*(4000000/4
      +                          000.0)));
  1204  000A6C  0E14               	movlw	20
  1205  000A6E  6E12               	movwf	??_DelayPORXLCD^0,c
  1206  000A70  0E7A               	movlw	122
  1207  000A72                     u577:
  1208  000A72  2EE8               	decfsz	wreg,f,c
  1209  000A74  D7FE               	bra	u577
  1210  000A76  2E12               	decfsz	??_DelayPORXLCD^0,f,c
  1211  000A78  D7FC               	bra	u577
  1212  000A7A  0012               	return		;funcret
  1213  000A7C                     __end_of_DelayPORXLCD:
  1214                           	callstack 0
  1215                           
  1216 ;; *************** function _SetDDRamAddr *****************
  1217 ;; Defined at:
  1218 ;;		line 13 in file "Lib_mias_all/microchip_LCD/setddram.c"
  1219 ;; Parameters:    Size  Location     Type
  1220 ;;  DDaddr          1    wreg     unsigned char 
  1221 ;; Auto vars:     Size  Location     Type
  1222 ;;  DDaddr          1    3[COMRAM] unsigned char 
  1223 ;; Return value:  Size  Location     Type
  1224 ;;                  1    wreg      void 
  1225 ;; Registers used:
  1226 ;;		wreg, status,2, status,0, cstack
  1227 ;; Tracked objects:
  1228 ;;		On entry : 0/0
  1229 ;;		On exit  : 0/0
  1230 ;;		Unchanged: 0/0
  1231 ;; Data sizes:     COMRAM   BANK0   BANK1   BANK2   BANK3   BANK4   BANK5
  1232 ;;      Params:         0       0       0       0       0       0       0
  1233 ;;      Locals:         1       0       0       0       0       0       0
  1234 ;;      Temps:          3       0       0       0       0       0       0
  1235 ;;      Totals:         4       0       0       0       0       0       0
  1236 ;;Total ram usage:        4 bytes
  1237 ;; Hardware stack levels used:    1
  1238 ;; Hardware stack levels required when called:    1
  1239 ;; This function calls:
  1240 ;;		_DelayFor18TCY
  1241 ;; This function is called by:
  1242 ;;		_OpenXLCD
  1243 ;;		_main
  1244 ;;		_saludo
  1245 ;;		_escribe_float
  1246 ;; This function uses a non-reentrant model
  1247 ;;
  1248                           
  1249                           	psect	text10
  1250  0008D8                     __ptext10:
  1251                           	callstack 0
  1252  0008D8                     _SetDDRamAddr:
  1253                           	callstack 29
  1254                           
  1255                           ;incstack = 0
  1256                           ;SetDDRamAddr@DDaddr stored from wreg
  1257  0008D8  6E15               	movwf	SetDDRamAddr@DDaddr^0,c
  1258  0008DA                     
  1259                           ;Lib_mias_all/microchip_LCD/setddram.c: 13: void SetDDRamAddr(unsigned char DDaddr);Lib_
      +                          mias_all/microchip_LCD/setddram.c: 14: {;Lib_mias_all/microchip_LCD/setddram.c: 32:     
      +                              TRISB &= 0xf0;
  1260  0008DA  0EF0               	movlw	240
  1261  0008DC  1693               	andwf	147,f,c	;volatile
  1262                           
  1263                           ;Lib_mias_all/microchip_LCD/setddram.c: 33:         PORTB &= 0xf0;
  1264  0008DE  0EF0               	movlw	240
  1265  0008E0  1681               	andwf	129,f,c	;volatile
  1266                           
  1267                           ;Lib_mias_all/microchip_LCD/setddram.c: 34:         PORTB |= (((DDaddr | 0b10000000)>>4)
      +                           & 0x0f);
  1268  0008E2  5015               	movf	SetDDRamAddr@DDaddr^0,w,c
  1269  0008E4  6E12               	movwf	??_SetDDRamAddr^0,c
  1270  0008E6  6A13               	clrf	(??_SetDDRamAddr+1)^0,c
  1271  0008E8  0E80               	movlw	128
  1272  0008EA  1212               	iorwf	??_SetDDRamAddr^0,f,c
  1273  0008EC  0E00               	movlw	0
  1274  0008EE  1213               	iorwf	(??_SetDDRamAddr+1)^0,f,c
  1275  0008F0  0E04               	movlw	4
  1276  0008F2  6E14               	movwf	(??_SetDDRamAddr+2)^0,c
  1277  0008F4                     u35:
  1278  0008F4  3413               	rlcf	(??_SetDDRamAddr+1)^0,w,c
  1279  0008F6  3213               	rrcf	(??_SetDDRamAddr+1)^0,f,c
  1280  0008F8  3212               	rrcf	??_SetDDRamAddr^0,f,c
  1281  0008FA  2E14               	decfsz	(??_SetDDRamAddr+2)^0,f,c
  1282  0008FC  EF7A  F004         	goto	u35
  1283  000900  5012               	movf	??_SetDDRamAddr^0,w,c
  1284  000902  0B0F               	andlw	15
  1285  000904  1281               	iorwf	129,f,c	;volatile
  1286  000906                     
  1287                           ;Lib_mias_all/microchip_LCD/setddram.c: 36:         LATBbits.LATB5 = 0;
  1288  000906  9A8A               	bcf	138,5,c	;volatile
  1289  000908                     
  1290                           ;Lib_mias_all/microchip_LCD/setddram.c: 37:         LATCbits.LATC0 = 0;
  1291  000908  908B               	bcf	139,0,c	;volatile
  1292  00090A                     
  1293                           ;Lib_mias_all/microchip_LCD/setddram.c: 38:         DelayFor18TCY();
  1294  00090A  EC3E  F005         	call	_DelayFor18TCY	;wreg free
  1295  00090E                     
  1296                           ;Lib_mias_all/microchip_LCD/setddram.c: 39:         LATBbits.LATB6 = 1;
  1297  00090E  8C8A               	bsf	138,6,c	;volatile
  1298  000910                     
  1299                           ;Lib_mias_all/microchip_LCD/setddram.c: 40:         DelayFor18TCY();
  1300  000910  EC3E  F005         	call	_DelayFor18TCY	;wreg free
  1301  000914                     
  1302                           ;Lib_mias_all/microchip_LCD/setddram.c: 41:         LATBbits.LATB6 = 0;
  1303  000914  9C8A               	bcf	138,6,c	;volatile
  1304                           
  1305                           ;Lib_mias_all/microchip_LCD/setddram.c: 46:         PORTB &= 0xf0;
  1306  000916  0EF0               	movlw	240
  1307  000918  1681               	andwf	129,f,c	;volatile
  1308                           
  1309                           ;Lib_mias_all/microchip_LCD/setddram.c: 47:         PORTB |= (DDaddr&0x0f);
  1310  00091A  5015               	movf	SetDDRamAddr@DDaddr^0,w,c
  1311  00091C  0B0F               	andlw	15
  1312  00091E  1281               	iorwf	129,f,c	;volatile
  1313  000920                     
  1314                           ;Lib_mias_all/microchip_LCD/setddram.c: 49:         DelayFor18TCY();
  1315  000920  EC3E  F005         	call	_DelayFor18TCY	;wreg free
  1316  000924                     
  1317                           ;Lib_mias_all/microchip_LCD/setddram.c: 50:         LATBbits.LATB6 = 1;
  1318  000924  8C8A               	bsf	138,6,c	;volatile
  1319  000926                     
  1320                           ;Lib_mias_all/microchip_LCD/setddram.c: 51:         DelayFor18TCY();
  1321  000926  EC3E  F005         	call	_DelayFor18TCY	;wreg free
  1322  00092A                     
  1323                           ;Lib_mias_all/microchip_LCD/setddram.c: 52:         LATBbits.LATB6 = 0;
  1324  00092A  9C8A               	bcf	138,6,c	;volatile
  1325                           
  1326                           ;Lib_mias_all/microchip_LCD/setddram.c: 56:         TRISB |= 0x0f;
  1327  00092C  0E0F               	movlw	15
  1328  00092E  1293               	iorwf	147,f,c	;volatile
  1329  000930  0012               	return		;funcret
  1330  000932                     __end_of_SetDDRamAddr:
  1331                           	callstack 0
  1332                           
  1333 ;; *************** function _BusyXLCD *****************
  1334 ;; Defined at:
  1335 ;;		line 11 in file "Lib_mias_all/microchip_LCD/busyxlcd.c"
  1336 ;; Parameters:    Size  Location     Type
  1337 ;;		None
  1338 ;; Auto vars:     Size  Location     Type
  1339 ;;		None
  1340 ;; Return value:  Size  Location     Type
  1341 ;;                  1    wreg      unsigned char 
  1342 ;; Registers used:
  1343 ;;		wreg, cstack
  1344 ;; Tracked objects:
  1345 ;;		On entry : 0/0
  1346 ;;		On exit  : 0/0
  1347 ;;		Unchanged: 0/0
  1348 ;; Data sizes:     COMRAM   BANK0   BANK1   BANK2   BANK3   BANK4   BANK5
  1349 ;;      Params:         0       0       0       0       0       0       0
  1350 ;;      Locals:         0       0       0       0       0       0       0
  1351 ;;      Temps:          0       0       0       0       0       0       0
  1352 ;;      Totals:         0       0       0       0       0       0       0
  1353 ;;Total ram usage:        0 bytes
  1354 ;; Hardware stack levels used:    1
  1355 ;; Hardware stack levels required when called:    1
  1356 ;; This function calls:
  1357 ;;		_DelayFor18TCY
  1358 ;; This function is called by:
  1359 ;;		_OpenXLCD
  1360 ;;		_putrsXLCD
  1361 ;;		_main
  1362 ;;		_putsXLCD
  1363 ;;		_saludo
  1364 ;;		_escribe_float
  1365 ;; This function uses a non-reentrant model
  1366 ;;
  1367                           
  1368                           	psect	text11
  1369  000984                     __ptext11:
  1370                           	callstack 0
  1371  000984                     _BusyXLCD:
  1372                           	callstack 28
  1373  000984                     
  1374                           ;Lib_mias_all/microchip_LCD/busyxlcd.c: 13:         LATBbits.LATB5 = 1;
  1375  000984  8A8A               	bsf	138,5,c	;volatile
  1376                           
  1377                           ;Lib_mias_all/microchip_LCD/busyxlcd.c: 14:         LATCbits.LATC0 = 0;
  1378  000986  908B               	bcf	139,0,c	;volatile
  1379  000988                     
  1380                           ;Lib_mias_all/microchip_LCD/busyxlcd.c: 15:         DelayFor18TCY();
  1381  000988  EC3E  F005         	call	_DelayFor18TCY	;wreg free
  1382  00098C                     
  1383                           ;Lib_mias_all/microchip_LCD/busyxlcd.c: 16:         LATBbits.LATB6 = 1;
  1384  00098C  8C8A               	bsf	138,6,c	;volatile
  1385                           
  1386                           ;Lib_mias_all/microchip_LCD/busyxlcd.c: 17:         DelayFor18TCY();
  1387  00098E  EC3E  F005         	call	_DelayFor18TCY	;wreg free
  1388  000992                     
  1389                           ;Lib_mias_all/microchip_LCD/busyxlcd.c: 35:         if(PORTB&0x08)
  1390  000992  A681               	btfss	129,3,c	;volatile
  1391  000994  EFCE  F004         	goto	u11
  1392  000998  EFD0  F004         	goto	u10
  1393  00099C                     u11:
  1394  00099C  EFDB  F004         	goto	l53
  1395  0009A0                     u10:
  1396  0009A0                     
  1397                           ;Lib_mias_all/microchip_LCD/busyxlcd.c: 37:         {;Lib_mias_all/microchip_LCD/busyxlc
      +                          d.c: 38:                 LATBbits.LATB6 = 0;
  1398  0009A0  9C8A               	bcf	138,6,c	;volatile
  1399  0009A2                     
  1400                           ;Lib_mias_all/microchip_LCD/busyxlcd.c: 39:                 DelayFor18TCY();
  1401  0009A2  EC3E  F005         	call	_DelayFor18TCY	;wreg free
  1402  0009A6                     
  1403                           ;Lib_mias_all/microchip_LCD/busyxlcd.c: 40:                 LATBbits.LATB6 = 1;
  1404  0009A6  8C8A               	bsf	138,6,c	;volatile
  1405                           
  1406                           ;Lib_mias_all/microchip_LCD/busyxlcd.c: 41:                 DelayFor18TCY();
  1407  0009A8  EC3E  F005         	call	_DelayFor18TCY	;wreg free
  1408  0009AC                     
  1409                           ;Lib_mias_all/microchip_LCD/busyxlcd.c: 42:                 LATBbits.LATB6 = 0;
  1410  0009AC  9C8A               	bcf	138,6,c	;volatile
  1411  0009AE                     
  1412                           ;Lib_mias_all/microchip_LCD/busyxlcd.c: 43:                 LATBbits.LATB5 = 0;
  1413  0009AE  9A8A               	bcf	138,5,c	;volatile
  1414  0009B0                     
  1415                           ;Lib_mias_all/microchip_LCD/busyxlcd.c: 44:                 return 1;
  1416  0009B0  0E01               	movlw	1
  1417  0009B2  EFE4  F004         	goto	l54
  1418  0009B6                     l53:
  1419                           
  1420                           ;Lib_mias_all/microchip_LCD/busyxlcd.c: 47:         {;Lib_mias_all/microchip_LCD/busyxlc
      +                          d.c: 48:                 LATBbits.LATB6 = 0;
  1421  0009B6  9C8A               	bcf	138,6,c	;volatile
  1422  0009B8                     
  1423                           ;Lib_mias_all/microchip_LCD/busyxlcd.c: 49:                 DelayFor18TCY();
  1424  0009B8  EC3E  F005         	call	_DelayFor18TCY	;wreg free
  1425  0009BC                     
  1426                           ;Lib_mias_all/microchip_LCD/busyxlcd.c: 50:                 LATBbits.LATB6 = 1;
  1427  0009BC  8C8A               	bsf	138,6,c	;volatile
  1428                           
  1429                           ;Lib_mias_all/microchip_LCD/busyxlcd.c: 51:                 DelayFor18TCY();
  1430  0009BE  EC3E  F005         	call	_DelayFor18TCY	;wreg free
  1431  0009C2                     
  1432                           ;Lib_mias_all/microchip_LCD/busyxlcd.c: 52:                 LATBbits.LATB6 = 0;
  1433  0009C2  9C8A               	bcf	138,6,c	;volatile
  1434  0009C4                     
  1435                           ;Lib_mias_all/microchip_LCD/busyxlcd.c: 53:                 LATBbits.LATB5 = 0;
  1436  0009C4  9A8A               	bcf	138,5,c	;volatile
  1437  0009C6                     
  1438                           ;Lib_mias_all/microchip_LCD/busyxlcd.c: 54:                 return 0;
  1439  0009C6  0E00               	movlw	0
  1440  0009C8                     l54:
  1441  0009C8  0012               	return		;funcret
  1442  0009CA                     __end_of_BusyXLCD:
  1443                           	callstack 0
  1444                           
  1445 ;; *************** function _DelayFor18TCY *****************
  1446 ;; Defined at:
  1447 ;;		line 62 in file "Lib_mias_all/microchip_LCD/delay_xlcd.c"
  1448 ;; Parameters:    Size  Location     Type
  1449 ;;		None
  1450 ;; Auto vars:     Size  Location     Type
  1451 ;;		None
  1452 ;; Return value:  Size  Location     Type
  1453 ;;                  1    wreg      void 
  1454 ;; Registers used:
  1455 ;;		None
  1456 ;; Tracked objects:
  1457 ;;		On entry : 0/0
  1458 ;;		On exit  : 0/0
  1459 ;;		Unchanged: 0/0
  1460 ;; Data sizes:     COMRAM   BANK0   BANK1   BANK2   BANK3   BANK4   BANK5
  1461 ;;      Params:         0       0       0       0       0       0       0
  1462 ;;      Locals:         0       0       0       0       0       0       0
  1463 ;;      Temps:          0       0       0       0       0       0       0
  1464 ;;      Totals:         0       0       0       0       0       0       0
  1465 ;;Total ram usage:        0 bytes
  1466 ;; Hardware stack levels used:    1
  1467 ;; This function calls:
  1468 ;;		Nothing
  1469 ;; This function is called by:
  1470 ;;		_BusyXLCD
  1471 ;;		_SetDDRamAddr
  1472 ;;		_WriteCmdXLCD
  1473 ;;		_WriteDataXLCD
  1474 ;;		_ReadAddrXLCD
  1475 ;;		_ReadDataXLCD
  1476 ;;		_SetCGRamAddr
  1477 ;; This function uses a non-reentrant model
  1478 ;;
  1479                           
  1480                           	psect	text12
  1481  000A7C                     __ptext12:
  1482                           	callstack 0
  1483  000A7C                     _DelayFor18TCY:
  1484                           	callstack 28
  1485  000A7C                     
  1486                           ;Lib_mias_all/microchip_LCD/delay_xlcd.c: 64:     _delay((unsigned long)((5)*(4000000/40
      +                          00000.0)));
  1487  000A7C  F000 F000          	nop2		;2 cycle nop
  1488  000A80  F000 F000          	nop2		;2 cycle nop
  1489  000A84  F000               	nop	
  1490  000A86  0012               	return		;funcret
  1491  000A88                     __end_of_DelayFor18TCY:
  1492                           	callstack 0
  1493                           
  1494 ;; *************** function _DelayXLCD *****************
  1495 ;; Defined at:
  1496 ;;		line 75 in file "Lib_mias_all/microchip_LCD/delay_xlcd.c"
  1497 ;; Parameters:    Size  Location     Type
  1498 ;;		None
  1499 ;; Auto vars:     Size  Location     Type
  1500 ;;		None
  1501 ;; Return value:  Size  Location     Type
  1502 ;;                  1    wreg      void 
  1503 ;; Registers used:
  1504 ;;		wreg
  1505 ;; Tracked objects:
  1506 ;;		On entry : 0/0
  1507 ;;		On exit  : 0/0
  1508 ;;		Unchanged: 0/0
  1509 ;; Data sizes:     COMRAM   BANK0   BANK1   BANK2   BANK3   BANK4   BANK5
  1510 ;;      Params:         0       0       0       0       0       0       0
  1511 ;;      Locals:         0       0       0       0       0       0       0
  1512 ;;      Temps:          1       0       0       0       0       0       0
  1513 ;;      Totals:         1       0       0       0       0       0       0
  1514 ;;Total ram usage:        1 bytes
  1515 ;; Hardware stack levels used:    1
  1516 ;; This function calls:
  1517 ;;		Nothing
  1518 ;; This function is called by:
  1519 ;;		_LCD_inicio
  1520 ;; This function uses a non-reentrant model
  1521 ;;
  1522                           
  1523                           	psect	text13
  1524  000A5A                     __ptext13:
  1525                           	callstack 0
  1526  000A5A                     _DelayXLCD:
  1527                           	callstack 29
  1528  000A5A                     
  1529                           ;Lib_mias_all/microchip_LCD/delay_xlcd.c: 76:     _delay((unsigned long)((5)*(4000000/40
      +                          00.0)));
  1530  000A5A  0E07               	movlw	7
  1531  000A5C  6E12               	movwf	??_DelayXLCD^0,c
  1532  000A5E  0E7D               	movlw	125
  1533  000A60                     u587:
  1534  000A60  2EE8               	decfsz	wreg,f,c
  1535  000A62  D7FE               	bra	u587
  1536  000A64  2E12               	decfsz	??_DelayXLCD^0,f,c
  1537  000A66  D7FC               	bra	u587
  1538  000A68  F000               	nop	
  1539  000A6A  0012               	return		;funcret
  1540  000A6C                     __end_of_DelayXLCD:
  1541                           	callstack 0
  1542                           
  1543                           	psect	rparam
  1544  0000                     
  1545                           	psect	idloc
  1546                           
  1547                           ;Config register IDLOC0 @ 0x200000
  1548                           ;	unspecified, using default values
  1549  200000                     	org	2097152
  1550  200000  FF                 	db	255
  1551                           
  1552                           ;Config register IDLOC1 @ 0x200001
  1553                           ;	unspecified, using default values
  1554  200001                     	org	2097153
  1555  200001  FF                 	db	255
  1556                           
  1557                           ;Config register IDLOC2 @ 0x200002
  1558                           ;	unspecified, using default values
  1559  200002                     	org	2097154
  1560  200002  FF                 	db	255
  1561                           
  1562                           ;Config register IDLOC3 @ 0x200003
  1563                           ;	unspecified, using default values
  1564  200003                     	org	2097155
  1565  200003  FF                 	db	255
  1566                           
  1567                           ;Config register IDLOC4 @ 0x200004
  1568                           ;	unspecified, using default values
  1569  200004                     	org	2097156
  1570  200004  FF                 	db	255
  1571                           
  1572                           ;Config register IDLOC5 @ 0x200005
  1573                           ;	unspecified, using default values
  1574  200005                     	org	2097157
  1575  200005  FF                 	db	255
  1576                           
  1577                           ;Config register IDLOC6 @ 0x200006
  1578                           ;	unspecified, using default values
  1579  200006                     	org	2097158
  1580  200006  FF                 	db	255
  1581                           
  1582                           ;Config register IDLOC7 @ 0x200007
  1583                           ;	unspecified, using default values
  1584  200007                     	org	2097159
  1585  200007  FF                 	db	255
  1586                           
  1587                           	psect	config
  1588                           
  1589                           ; Padding undefined space
  1590  300000                     	org	3145728
  1591  300000  FF                 	db	255
  1592                           
  1593                           ;Config register CONFIG1H @ 0x300001
  1594                           ;	Oscillator Selection bits
  1595                           ;	FOSC = HS, HS oscillator
  1596                           ;	Fail-Safe Clock Monitor Enable bit
  1597                           ;	FCMEN = OFF, Fail-Safe Clock Monitor disabled
  1598                           ;	Internal/External Oscillator Switchover bit
  1599                           ;	IESO = OFF, Oscillator Switchover mode disabled
  1600  300001                     	org	3145729
  1601  300001  02                 	db	2
  1602                           
  1603                           ;Config register CONFIG2L @ 0x300002
  1604                           ;	Power-up Timer Enable bit
  1605                           ;	PWRT = OFF, PWRT disabled
  1606                           ;	Brown-out Reset Enable bits
  1607                           ;	BOREN = SBORDIS, Brown-out Reset enabled in hardware only (SBOREN is disabled)
  1608                           ;	Brown Out Reset Voltage bits
  1609                           ;	BORV = 18, VBOR set to 1.8 V nominal
  1610  300002                     	org	3145730
  1611  300002  1F                 	db	31
  1612                           
  1613                           ;Config register CONFIG2H @ 0x300003
  1614                           ;	Watchdog Timer Enable bit
  1615                           ;	WDTEN = OFF, WDT is controlled by SWDTEN bit of the WDTCON register
  1616                           ;	Watchdog Timer Postscale Select bits
  1617                           ;	WDTPS = 32768, 1:32768
  1618  300003                     	org	3145731
  1619  300003  1E                 	db	30
  1620                           
  1621                           ; Padding undefined space
  1622  300004                     	org	3145732
  1623  300004  FF                 	db	255
  1624                           
  1625                           ;Config register CONFIG3H @ 0x300005
  1626                           ;	CCP2 MUX bit
  1627                           ;	CCP2MX = PORTC, CCP2 input/output is multiplexed with RC1
  1628                           ;	PORTB A/D Enable bit
  1629                           ;	PBADEN = ON, PORTB<4:0> pins are configured as analog input channels on Reset
  1630                           ;	Low-Power Timer1 Oscillator Enable bit
  1631                           ;	LPT1OSC = OFF, Timer1 configured for higher power operation
  1632                           ;	HFINTOSC Fast Start-up
  1633                           ;	HFOFST = ON, HFINTOSC starts clocking the CPU without waiting for the oscillator to st
      +                          ablize.
  1634                           ;	MCLR Pin Enable bit
  1635                           ;	MCLRE = ON, MCLR pin enabled; RE3 input pin disabled
  1636  300005                     	org	3145733
  1637  300005  8B                 	db	139
  1638                           
  1639                           ;Config register CONFIG4L @ 0x300006
  1640                           ;	Stack Full/Underflow Reset Enable bit
  1641                           ;	STVREN = ON, Stack full/underflow will cause Reset
  1642                           ;	Single-Supply ICSP Enable bit
  1643                           ;	LVP = OFF, Single-Supply ICSP disabled
  1644                           ;	Extended Instruction Set Enable bit
  1645                           ;	XINST = OFF, Instruction set extension and Indexed Addressing mode disabled (Legacy mo
      +                          de)
  1646                           ;	Background Debugger Enable bit
  1647                           ;	DEBUG = OFF, Background debugger disabled, RB6 and RB7 configured as general purpose I
      +                          /O pins
  1648  300006                     	org	3145734
  1649  300006  81                 	db	129
  1650                           
  1651                           ; Padding undefined space
  1652  300007                     	org	3145735
  1653  300007  FF                 	db	255
  1654                           
  1655                           ;Config register CONFIG5L @ 0x300008
  1656                           ;	Code Protection Block 0
  1657                           ;	CP0 = OFF, Block 0 (000800-001FFFh) not code-protected
  1658                           ;	Code Protection Block 1
  1659                           ;	CP1 = OFF, Block 1 (002000-003FFFh) not code-protected
  1660                           ;	Code Protection Block 2
  1661                           ;	CP2 = OFF, Block 2 (004000-005FFFh) not code-protected
  1662                           ;	Code Protection Block 3
  1663                           ;	CP3 = OFF, Block 3 (006000-007FFFh) not code-protected
  1664  300008                     	org	3145736
  1665  300008  0F                 	db	15
  1666                           
  1667                           ;Config register CONFIG5H @ 0x300009
  1668                           ;	Boot Block Code Protection bit
  1669                           ;	CPB = OFF, Boot block (000000-0007FFh) not code-protected
  1670                           ;	Data EEPROM Code Protection bit
  1671                           ;	CPD = OFF, Data EEPROM not code-protected
  1672  300009                     	org	3145737
  1673  300009  C0                 	db	192
  1674                           
  1675                           ;Config register CONFIG6L @ 0x30000A
  1676                           ;	Write Protection Block 0
  1677                           ;	WRT0 = OFF, Block 0 (000800-001FFFh) not write-protected
  1678                           ;	Write Protection Block 1
  1679                           ;	WRT1 = OFF, Block 1 (002000-003FFFh) not write-protected
  1680                           ;	Write Protection Block 2
  1681                           ;	WRT2 = OFF, Block 2 (004000-005FFFh) not write-protected
  1682                           ;	Write Protection Block 3
  1683                           ;	WRT3 = OFF, Block 3 (006000-007FFFh) not write-protected
  1684  30000A                     	org	3145738
  1685  30000A  0F                 	db	15
  1686                           
  1687                           ;Config register CONFIG6H @ 0x30000B
  1688                           ;	Configuration Register Write Protection bit
  1689                           ;	WRTC = OFF, Configuration registers (300000-3000FFh) not write-protected
  1690                           ;	Boot Block Write Protection bit
  1691                           ;	WRTB = OFF, Boot Block (000000-0007FFh) not write-protected
  1692                           ;	Data EEPROM Write Protection bit
  1693                           ;	WRTD = OFF, Data EEPROM not write-protected
  1694  30000B                     	org	3145739
  1695  30000B  E0                 	db	224
  1696                           
  1697                           ;Config register CONFIG7L @ 0x30000C
  1698                           ;	Table Read Protection Block 0
  1699                           ;	EBTR0 = OFF, Block 0 (000800-001FFFh) not protected from table reads executed in other
      +                           blocks
  1700                           ;	Table Read Protection Block 1
  1701                           ;	EBTR1 = OFF, Block 1 (002000-003FFFh) not protected from table reads executed in other
      +                           blocks
  1702                           ;	Table Read Protection Block 2
  1703                           ;	EBTR2 = OFF, Block 2 (004000-005FFFh) not protected from table reads executed in other
      +                           blocks
  1704                           ;	Table Read Protection Block 3
  1705                           ;	EBTR3 = OFF, Block 3 (006000-007FFFh) not protected from table reads executed in other
      +                           blocks
  1706  30000C                     	org	3145740
  1707  30000C  0F                 	db	15
  1708                           
  1709                           ;Config register CONFIG7H @ 0x30000D
  1710                           ;	Boot Block Table Read Protection bit
  1711                           ;	EBTRB = OFF, Boot Block (000000-0007FFh) not protected from table reads executed in ot
      +                          her blocks
  1712  30000D                     	org	3145741
  1713  30000D  40                 	db	64
  1714                           tosu	equ	0xFFF
  1715                           tosh	equ	0xFFE
  1716                           tosl	equ	0xFFD
  1717                           stkptr	equ	0xFFC
  1718                           pclatu	equ	0xFFB
  1719                           pclath	equ	0xFFA
  1720                           pcl	equ	0xFF9
  1721                           tblptru	equ	0xFF8
  1722                           tblptrh	equ	0xFF7
  1723                           tblptrl	equ	0xFF6
  1724                           tablat	equ	0xFF5
  1725                           prodh	equ	0xFF4
  1726                           prodl	equ	0xFF3
  1727                           indf0	equ	0xFEF
  1728                           postinc0	equ	0xFEE
  1729                           postdec0	equ	0xFED
  1730                           preinc0	equ	0xFEC
  1731                           plusw0	equ	0xFEB
  1732                           fsr0h	equ	0xFEA
  1733                           fsr0l	equ	0xFE9
  1734                           wreg	equ	0xFE8
  1735                           indf1	equ	0xFE7
  1736                           postinc1	equ	0xFE6
  1737                           postdec1	equ	0xFE5
  1738                           preinc1	equ	0xFE4
  1739                           plusw1	equ	0xFE3
  1740                           fsr1h	equ	0xFE2
  1741                           fsr1l	equ	0xFE1
  1742                           bsr	equ	0xFE0
  1743                           indf2	equ	0xFDF
  1744                           postinc2	equ	0xFDE
  1745                           postdec2	equ	0xFDD
  1746                           preinc2	equ	0xFDC
  1747                           plusw2	equ	0xFDB
  1748                           fsr2h	equ	0xFDA
  1749                           fsr2l	equ	0xFD9
  1750                           status	equ	0xFD8

Data Sizes:
    Strings     61
    Constant    0
    Data        0
    BSS         17
    Persistent  0
    Stack       0

Auto Spaces:
    Space          Size  Autos    Used
    COMRAM           95      8      25
    BANK0           160      0       0
    BANK1           256      0       0
    BANK2           256      0       0
    BANK3           256      0       0
    BANK4           256      0       0
    BANK5           256      0       0

Pointer List with Targets:

    vfprintf$2	PTR PTR void  size(2) Largest target is 2
		 -> sprintf@ap(COMRAM[2]), 

    vfprintf$1	PTR const unsigned char  size(2) Largest target is 11
		 -> STR_5(CODE[11]), 

    vfprintf$0	PTR struct _IO_FILE size(2) Largest target is 7
		 -> sprintf@f(COMRAM[6]), 

    S1266_IO_FILE$buffer	PTR unsigned char  size(2) Largest target is 17
		 -> ftoat_mio@buf(COMRAM[17]), 

    f.buffer	PTR unsigned char  size(2) Largest target is 17
		 -> ftoat_mio@buf(COMRAM[17]), 

    sp__ftoat_mio	PTR unsigned char  size(2) Largest target is 17
		 -> ftoat_mio@buf(COMRAM[17]), 

    putrsXLCD@buffer	PTR unsigned char  size(2) Largest target is 17
		 -> STR_6(CODE[1]), ftoat_mio@buf(COMRAM[17]), STR_4(CODE[14]), STR_3(CODE[16]), 
		 -> STR_2(CODE[8]), STR_1(CODE[12]), 


Critical Paths under _main in COMRAM

    _putrsXLCD->_WriteDataXLCD
    _LCD_inicio->_OpenXLCD
    _OpenXLCD->_SetDDRamAddr
    _WriteCmdXLCD->_DelayPORXLCD

Critical Paths under _main in BANK0

    None.

Critical Paths under _main in BANK1

    None.

Critical Paths under _main in BANK2

    None.

Critical Paths under _main in BANK3

    None.

Critical Paths under _main in BANK4

    None.

Critical Paths under _main in BANK5

    None.

Call Graph Tables:

 ---------------------------------------------------------------------------------
 (Depth) Function   	        Calls       Base Space   Used Autos Params    Refs
 ---------------------------------------------------------------------------------
 (0) _main                                                 2     2      0     741
                                              6 COMRAM     2     2      0
                           _BusyXLCD
                         _LCD_inicio
                  _SYSTEM_Initialize
                       _SetDDRamAddr
                       _WriteCmdXLCD
                          _putrsXLCD
 ---------------------------------------------------------------------------------
 (1) _putrsXLCD                                            2     0      2     531
                                              1 COMRAM     2     0      2
                           _BusyXLCD
                      _WriteDataXLCD
 ---------------------------------------------------------------------------------
 (2) _WriteDataXLCD                                        1     1      0      30
                                              0 COMRAM     1     1      0
                      _DelayFor18TCY
 ---------------------------------------------------------------------------------
 (1) _SYSTEM_Initialize                                    0     0      0       0
              _OSCILLATOR_Initialize
             _PIN_MANAGER_Initialize
 ---------------------------------------------------------------------------------
 (2) _PIN_MANAGER_Initialize                               0     0      0       0
 ---------------------------------------------------------------------------------
 (2) _OSCILLATOR_Initialize                                0     0      0       0
 ---------------------------------------------------------------------------------
 (1) _LCD_inicio                                           0     0      0     135
                          _DelayXLCD
                           _OpenXLCD
                       _WriteCmdXLCD
 ---------------------------------------------------------------------------------
 (2) _OpenXLCD                                             2     2      0      90
                                              4 COMRAM     2     2      0
                           _BusyXLCD
                       _SetDDRamAddr
                       _WriteCmdXLCD
 ---------------------------------------------------------------------------------
 (1) _WriteCmdXLCD                                         1     1      0      45
                                              1 COMRAM     1     1      0
                      _DelayFor18TCY
                       _DelayPORXLCD
 ---------------------------------------------------------------------------------
 (2) _DelayPORXLCD                                         1     1      0       0
                                              0 COMRAM     1     1      0
 ---------------------------------------------------------------------------------
 (1) _SetDDRamAddr                                         4     4      0      30
                                              0 COMRAM     4     4      0
                      _DelayFor18TCY
 ---------------------------------------------------------------------------------
 (2) _BusyXLCD                                             0     0      0       0
                      _DelayFor18TCY
 ---------------------------------------------------------------------------------
 (3) _DelayFor18TCY                                        0     0      0       0
 ---------------------------------------------------------------------------------
 (2) _DelayXLCD                                            1     1      0       0
                                              0 COMRAM     1     1      0
 ---------------------------------------------------------------------------------
 Estimated maximum stack depth 3
 ---------------------------------------------------------------------------------

 Call Graph Graphs:

 _main (ROOT)
   _BusyXLCD
     _DelayFor18TCY
   _LCD_inicio
     _DelayXLCD
     _OpenXLCD
       _BusyXLCD
         _DelayFor18TCY
       _SetDDRamAddr
         _DelayFor18TCY
       _WriteCmdXLCD
         _DelayFor18TCY
         _DelayPORXLCD
     _WriteCmdXLCD
       _DelayFor18TCY
       _DelayPORXLCD
   _SYSTEM_Initialize
     _OSCILLATOR_Initialize
     _PIN_MANAGER_Initialize
   _SetDDRamAddr
     _DelayFor18TCY
   _WriteCmdXLCD
     _DelayFor18TCY
     _DelayPORXLCD
   _putrsXLCD
     _BusyXLCD
       _DelayFor18TCY
     _WriteDataXLCD
       _DelayFor18TCY

 Address spaces:
Name               Size   Autos  Total    Cost      Usage
BIGRAM             5FF      0       0      17        0.0%
EEDATA             100      0       0       0        0.0%
BITBANK5           100      0       0      16        0.0%
BANK5              100      0       0      14        0.0%
BITBANK4           100      0       0      12        0.0%
BANK4              100      0       0      13        0.0%
BITBANK3           100      0       0      10        0.0%
BANK3              100      0       0      11        0.0%
BITBANK2           100      0       0       8        0.0%
BANK2              100      0       0       9        0.0%
BITBANK1           100      0       0       6        0.0%
BANK1              100      0       0       7        0.0%
BITBANK0            A0      0       0       4        0.0%
BANK0               A0      0       0       5        0.0%
BITCOMRAM           5F      0       0       0        0.0%
COMRAM              5F      8      19       1       26.3%
BITSFR               0      0       0     200        0.0%
SFR                  0      0       0     200        0.0%
STACK                0      0       0       2        0.0%
NULL                 0      0       0       0        0.0%
ABS                  0      0      19      15        0.0%
DATA                 0      0      19       3        0.0%
CODE                 0      0       0       0        0.0%


Microchip Technology PIC18 Macro Assembler V2.31 build 20201012212115 
Symbol Table                                                                                   Fri Jan 29 13:54:39 2021

                             l11 0A90                               l14 0A9A  
                             l60 0A86                               l53 09B6  
                             l54 09C8                               l63 0A7A  
                             l39 0A2A                               l66 0A6A  
                             l75 0A42                               u10 09A0  
                             u11 099C                               u20 097E  
                             u21 097A                               u40 06A8  
                             u41 06A4                               u50 06C2  
                             u35 08F4                               u51 06BE  
                             u60 06DC                               u61 06D8  
                             u70 06F6                               u71 06F2  
                             u80 0710                               u81 070C  
                             u90 072A                               u91 0726  
                            l122 0764                              l212 0982  
                            l135 08D6                              l225 0A06  
                            l196 0930                              l994 0A7C  
                            l996 0A6C                              u100 0744  
                            u101 0740                              u110 075E  
                            u111 075A                              u400 07EC  
                            u401 07E8                              u330 087E  
                            u410 0822                              u331 087A  
                            u411 081E                              u340 089E  
                            u420 0838                              u421 0832  
                            u350 08C6                              u360 08D6  
                            u361 08D2                              u426 083A  
                            u370 0782                              u347 0894  
                            u507 07B2                              u371 077E  
                            u380 079C                              u357 08BC  
                            u517 0802                              u381 0798  
                            u390 07D2                              u527 0852  
                            u391 07CE                              u537 065C  
                            u547 0670                              u557 0682  
                            u567 0690                              u577 0A72  
                            u587 0A60                      ?_LCD_inicio 0012  
          __size_of_WriteCmdXLCD 0052                              wreg 000FE8  
                           l1000 0984                             l1010 09A2  
                           l1002 0988                             l1012 09A6  
                           l1004 098C                             l1100 0642  
                           l1030 09C4                             l1014 09AC  
                           l1006 0992                             l1110 0652  
                           l1102 064A                             l1032 09C6  
                           l1024 09B8                             l1016 09AE  
                           l1008 09A0                             l1040 0946  
                           l1120 067A                             l1112 0654  
                           l1104 064C                             l1026 09BC  
                           l1018 09B0                             l1050 095E  
                           l1042 0948                             l1130 06A8  
                           l1122 0680                             l1114 0656  
                           l1106 064E                             l1028 09C2  
                           l1052 0962                             l1044 094C  
                           l1036 0934                             l1140 06E2  
                           l1132 06AE                             l1124 0688  
                           l1116 0664                             l1108 0650  
                           l1070 090E                             l1062 08DA  
                           l1054 0964                             l1046 094E  
                           l1038 0944                             l1150 072A  
                           l1142 06F6                             l1134 06C2  
                           l1126 068E                             l1118 066A  
                           l1080 0926                             l1072 0910  
                           l1064 0906                             l1056 0968  
                           l1048 0952                             l1152 0730  
                           l1144 06FC                             l1136 06C8  
                           l1128 0694                             l1400 07A8  
                           l1082 092A                             l1074 0914  
                           l1066 0908                             l1058 097E  
                           l1154 0744                             l1146 0710  
                           l1138 06DC                             l1090 0A1A  
                           l1170 09E4                             l1162 09CC  
                           l1410 07F8                             l1402 07BE  
                           l1076 0920                             l1068 090A  
                           l1156 074A                             l1148 0716  
                           l1092 0A28                             l1180 09FC  
                           l1172 09E6                             l1164 09DC  
                           l1412 080E                             l1404 07D2  
                           l1078 0924                             l1158 075E  
                           l1190 0A3E                             l1094 0A92  
                           l1086 0A08                             l1182 0A00  
                           l1174 09EA                             l1166 09DE  
                           l1414 0822                             l1406 07D8  
                           l1096 0A5A                             l1088 0A18  
                           l1176 09F6                             l1168 09E0  
                           l1416 0828                             l1408 07EC  
                           l1186 0A88                             l1178 09FA  
                           l1418 0848                             l1188 0A2C  
                           l1380 086A                             l1382 087E  
                           l1390 076A                             l1384 08A2  
                           l1392 076E                             l1386 08A6  
                           l1378 0866                             l1394 0782  
                           l1396 0788                             l1388 0766  
                           l1398 079C                             STR_1 061F  
                           STR_2 0636                             STR_3 0601  
                           STR_4 0611                             STR_5 062B  
                           _LATA 000F89                             _LATB 000F8A  
                           _LATC 000F8B                             _WPUB 000F7C  
                           _main 0766                             fsr0h 000FEA  
                           indf0 000FEF                             fsr0l 000FE9  
         __size_of_WriteDataXLCD 003E                             start 0000  
                   ___param_bank 000000                     _WriteCmdXLCD 0932  
 __size_of_OSCILLATOR_Initialize 000A    __end_of_OSCILLATOR_Initialize 0A9C  
                  ?_SetDDRamAddr 0012                            ?_main 0012  
                          _ANSEL 000F7E                            _PORTB 000F81  
                          _TRISA 000F92                            _TRISB 000F93  
                          _TRISC 000F94                            tablat 000FF5  
                          status 000FD8              __size_of_LCD_inicio 0018  
                __initialization 0A44                     __end_of_main 0866  
               __end_of_BusyXLCD 09CA               __size_of_DelayXLCD 0012  
          __size_of_DelayPORXLCD 0010                   ??_SetDDRamAddr 0012  
               __end_of_OpenXLCD 0766                           ??_main 0018  
                  __activetblptr 000002                    _WriteDataXLCD 09CA  
                         _ANSELH 000F7F                           _OSCCON 000FD3  
                   _DelayPORXLCD 0A6C                           clear_0 0A4A  
                 ?_WriteDataXLCD 0012                     __mediumconst 0000  
                         tblptrh 000FF7                           tblptrl 000FF6  
                         tblptru 000FF8                __end_of_DelayXLCD 0A6C  
              _SYSTEM_Initialize 0A88                       __accesstop 0060  
        __end_of__initialization 0A50               ?_SYSTEM_Initialize 0012  
                  ___rparam_used 000001                   __pcstackCOMRAM 0012  
            ??_SYSTEM_Initialize 0012                     ??_LCD_inicio 0018  
      __end_of_SYSTEM_Initialize 0A92           __size_of_DelayFor18TCY 000C  
                      ?_BusyXLCD 0012                  WriteCmdXLCD@cmd 0013  
           __end_of_SetDDRamAddr 0932                        ?_OpenXLCD 0012  
             __end_of_LCD_inicio 0A44                WriteDataXLCD@data 0012  
                ??_WriteDataXLCD 0012                          _OSCTUNE 000F9B  
             __size_of_putrsXLCD 0072                       ??_BusyXLCD 0012  
                     ??_OpenXLCD 0016                          __Hparam 0000  
                        __Lparam 0000                    _DelayFor18TCY 0A7C  
                   __psmallconst 0600                          __pcinit 0A44  
                putrsXLCD@buffer 0013                          __ramtop 0600  
                        __ptext0 0766                          __ptext1 0866  
                        __ptext2 09CA                          __ptext3 0A88  
                        __ptext4 0A08                          __ptext5 0A92  
                        __ptext6 0A2C                          __ptext7 0640  
                        __ptext8 0932                          __ptext9 0A6C  
          _OSCILLATOR_Initialize 0A92         ??_PIN_MANAGER_Initialize 0012  
     __size_of_SYSTEM_Initialize 000A             end_of_initialization 0A50  
                   ftoat_mio@buf 0001                    __Lmediumconst 0000  
                 ?_DelayFor18TCY 0012                          postinc0 000FEE  
              __end_of_putrsXLCD 08D8                        _TRISBbits 000F93  
                      _TRISCbits 000F94            __size_of_SetDDRamAddr 005A  
                      _DelayXLCD 0A5A           ?_OSCILLATOR_Initialize 0012  
                   _SetDDRamAddr 08D8               SetDDRamAddr@DDaddr 0015  
            start_initialization 0A44  __size_of_PIN_MANAGER_Initialize 0024  
              __size_of_BusyXLCD 0046                       ?_DelayXLCD 0012  
                ??_DelayFor18TCY 0012                __size_of_OpenXLCD 0126  
                  ?_WriteCmdXLCD 0012                      __pbssCOMRAM 0001  
         _PIN_MANAGER_Initialize 0A08                   ??_WriteCmdXLCD 0013  
          __end_of_WriteDataXLCD 0A08                      __smallconst 0600  
                       _LATAbits 000F89                         _LATBbits 000F8A  
                       _LATCbits 000F8B                      ??_DelayXLCD 0012  
                  ?_DelayPORXLCD 0012                  OpenXLCD@lcdtype 0017  
                      _putrsXLCD 0866                      _INTCON2bits 000FF1  
                       _BusyXLCD 0984                   ??_DelayPORXLCD 0012  
                       _OpenXLCD 0640                         __Hrparam 0000  
                       __Lrparam 0000          ??_OSCILLATOR_Initialize 0012  
                     ?_putrsXLCD 0013                         __ptext10 08D8  
                       __ptext11 0984                         __ptext12 0A7C  
                       __ptext13 0A5A             __end_of_WriteCmdXLCD 0984  
                  __size_of_main 0100                       _LCD_inicio 0A2C  
                     _INTCONbits 000FF2          ?_PIN_MANAGER_Initialize 0012  
          __end_of_DelayFor18TCY 0A88             __end_of_DelayPORXLCD 0A7C  
                    ??_putrsXLCD 0015   __end_of_PIN_MANAGER_Initialize 0A2C  
