

Microchip MPLAB XC8 Assembler V2.31 build 20201012212115 
                                                                                               Fri Jan 29 13:45:20 2021

Microchip MPLAB XC8 C Compiler v2.31 (Free license) build 20201012212115 Og9 
     1                           	processor	18F25K20
     2                           	fnconf	rparam,??,?,0
     3                           	pagewidth 120
     4                           	opt	flic
     5                           	psect	smallconst,global,reloc=2,class=SMALLCONST,delta=1,noexec
     6                           	psect	cinit,global,reloc=2,class=CODE,delta=1
     7                           	psect	bitbssCOMRAM,global,bit,class=COMRAM,space=1,delta=1,lowdata,noexec
     8                           	psect	bssCOMRAM,global,class=COMRAM,space=1,delta=1,lowdata,noexec
     9                           	psect	cstackCOMRAM,global,class=COMRAM,space=1,delta=1,lowdata,noexec
    10                           	psect	text0,global,reloc=2,class=CODE,delta=1,codecov
    11                           	psect	text1,global,reloc=2,class=CODE,delta=1,codecov
    12                           	psect	text2,global,reloc=2,class=CODE,delta=1,codecov
    13                           	psect	text3,global,reloc=2,class=CODE,delta=1,codecov
    14                           	psect	text4,global,reloc=2,class=CODE,delta=1,codecov
    15                           	psect	text5,global,reloc=2,class=CODE,delta=1,codecov
    16                           	psect	text6,global,reloc=2,class=CODE,delta=1,codecov
    17                           	psect	text7,global,reloc=2,class=CODE,delta=1,codecov
    18                           	psect	text8,global,reloc=2,class=CODE,delta=1,codecov
    19                           	psect	text9,global,reloc=2,class=CODE,delta=1,codecov
    20                           	psect	text10,global,reloc=2,class=CODE,delta=1,codecov
    21                           	psect	text11,global,reloc=2,class=CODE,delta=1,codecov
    22                           	psect	text12,global,reloc=2,class=CODE,delta=1,codecov
    23                           	psect	text13,global,reloc=2,class=CODE,delta=1,codecov
    24                           	psect	codecov_info_hdr,global,note,abs,reloc=1,space=6,delta=1,noexec
    25                           	psect	codecov_info,global,note,abs,reloc=1,space=6,delta=1,noexec
    26                           	psect	intsave_regs,global,class=BIGRAM,space=1,delta=1,noexec
    27                           	psect	rparam,global,class=COMRAM,space=1,delta=1,noexec
    28                           	psect	idloc,global,abs,ovrld,class=IDLOC,space=5,delta=1,noexec
    29                           	psect	config,global,abs,ovrld,class=CONFIG,space=4,delta=1,noexec
    30  0000                     
    31                           ; Version 2.20
    32                           ; Generated 05/05/2020 GMT
    33                           ; 
    34                           ; Copyright © 2020, Microchip Technology Inc. and its subsidiaries ("Microchip")
    35                           ; All rights reserved.
    36                           ; 
    37                           ; This software is developed by Microchip Technology Inc. and its subsidiaries ("Microch
      +                          ip").
    38                           ; 
    39                           ; Redistribution and use in source and binary forms, with or without modification, are
    40                           ; permitted provided that the following conditions are met:
    41                           ; 
    42                           ;     1. Redistributions of source code must retain the above copyright notice, this lis
      +                          t of
    43                           ;        conditions and the following disclaimer.
    44                           ; 
    45                           ;     2. Redistributions in binary form must reproduce the above copyright notice, this 
      +                          list
    46                           ;        of conditions and the following disclaimer in the documentation and/or other
    47                           ;        materials provided with the distribution.
    48                           ; 
    49                           ;     3. Microchip's name may not be used to endorse or promote products derived from th
      +                          is
    50                           ;        software without specific prior written permission.
    51                           ; 
    52                           ; THIS SOFTWARE IS PROVIDED BY MICROCHIP "AS IS" AND ANY EXPRESS OR IMPLIED WARRANTIES,
    53                           ; INCLUDING, BUT NOT LIMITED TO, THE IMPLIED WARRANTIES OF MERCHANTABILITY AND FITNESS F
      +                          OR
    54                           ; PURPOSE ARE DISCLAIMED.  IN NO EVENT SHALL MICROCHIP BE LIABLE FOR ANY DIRECT, INDIREC
      +                          T,
    55                           ; INCIDENTAL, SPECIAL, EXEMPLARY, OR CONSEQUENTIAL DAMAGES (INCLUDING BUT NOT LIMITED TO
    56                           ; PROCUREMENT OF SUBSTITUTE GOODS OR SERVICES; LOSS OF USE, DATA OR PROFITS; OR BUSINESS
    57                           ; INTERRUPTION) HOWSOEVER CAUSED AND ON ANY THEORY OF LIABILITY, WHETHER IN CONTRACT, ST
      +                          RICT
    58                           ; LIABILITY, OR TORT (INCLUDING NEGLIGENCE OR OTHERWISE) ARISING IN ANY WAY OUT OF THE U
      +                          SE OF
    59                           ; THIS SOFTWARE, EVEN IF ADVISED OF THE POSSIBILITY OF SUCH DAMAGE.
    60                           ; 
    61                           ; 
    62                           ; Code-generator required, PIC18F25K20 Definitions
    63                           ; 
    64                           ; SFR Addresses
    65  0000                     _LATAbits	set	3977
    66  0000                     _TRISCbits	set	3988
    67  0000                     _TRISBbits	set	3987
    68  0000                     _PORTB	set	3969
    69  0000                     _LATCbits	set	3979
    70  0000                     _LATBbits	set	3978
    71  0000                     _INTCON2bits	set	4081
    72  0000                     _WPUB	set	3964
    73  0000                     _ANSELH	set	3967
    74  0000                     _ANSEL	set	3966
    75  0000                     _TRISC	set	3988
    76  0000                     _TRISB	set	3987
    77  0000                     _TRISA	set	3986
    78  0000                     _LATC	set	3979
    79  0000                     _LATB	set	3978
    80  0000                     _LATA	set	3977
    81  0000                     _OSCTUNE	set	3995
    82  0000                     _OSCCON	set	4051
    83                           
    84                           	psect	smallconst
    85  000600                     __psmallconst:
    86                           	callstack 0
    87  000600  00                 	db	0
    88  000601  20                 	db	32
    89  000602  20                 	db	32
    90  000603  43                 	db	67	;'C'
    91  000604  6F                 	db	111	;'o'
    92  000605  6E                 	db	110	;'n'
    93  000606  76                 	db	118	;'v'
    94  000607  65                 	db	101	;'e'
    95  000608  72                 	db	114	;'r'
    96  000609  73                 	db	115	;'s'
    97  00060A  6F                 	db	111	;'o'
    98  00060B  72                 	db	114	;'r'
    99  00060C  20                 	db	32
   100  00060D  41                 	db	65	;'A'
   101  00060E  2F                 	db	47
   102  00060F  44                 	db	68	;'D'
   103  000610  00                 	db	0
   104  000611  20                 	db	32
   105  000612  20                 	db	32
   106  000613  20                 	db	32
   107  000614  45                 	db	69	;'E'
   108  000615  6E                 	db	110	;'n'
   109  000616  65                 	db	101	;'e'
   110  000617  72                 	db	114	;'r'
   111  000618  6F                 	db	111	;'o'
   112  000619  2D                 	db	45
   113  00061A  32                 	db	50	;'2'
   114  00061B  30                 	db	48	;'0'
   115  00061C  32                 	db	50	;'2'
   116  00061D  30                 	db	48	;'0'
   117  00061E  00                 	db	0
   118  00061F                     STR_1:
   119  00061F  52                 	db	82	;'R'
   120  000620  69                 	db	105	;'i'
   121  000621  6F                 	db	111	;'o'
   122  000622  20                 	db	32
   123  000623  43                 	db	67	;'C'
   124  000624  61                 	db	97	;'a'
   125  000625  72                 	db	114	;'r'
   126  000626  69                 	db	105	;'i'
   127  000627  62                 	db	98	;'b'
   128  000628  65                 	db	101	;'e'
   129  000629  20                 	db	32
   130  00062A  00                 	db	0
   131  00062B  25                 	db	37
   132  00062C  6C                 	db	108	;'l'
   133  00062D  75                 	db	117	;'u'
   134  00062E  2E                 	db	46
   135  00062F  25                 	db	37
   136  000630  34                 	db	52	;'4'
   137  000631  2E                 	db	46
   138  000632  33                 	db	51	;'3'
   139  000633  6C                 	db	108	;'l'
   140  000634  75                 	db	117	;'u'
   141  000635  00                 	db	0
   142  000636                     STR_2:
   143  000636  20                 	db	32
   144  000637  53                 	db	83	;'S'
   145  000638  75                 	db	117	;'u'
   146  000639  63                 	db	99	;'c'
   147  00063A  72                 	db	114	;'r'
   148  00063B  65                 	db	101	;'e'
   149  00063C  20                 	db	32
   150  00063D  00                 	db	0
   151  00063E  00                 	db	0	; dummy byte at the end
   152  0000                     
   153                           ; #config settings
   154                           
   155                           	psect	cinit
   156  000A38                     __pcinit:
   157                           	callstack 0
   158  000A38                     start_initialization:
   159                           	callstack 0
   160  000A38                     __initialization:
   161                           	callstack 0
   162                           
   163                           ; Clear objects allocated to BITCOMRAM (3 bytes)
   164  000A38  6A03               	clrf	((__pbitbssCOMRAM/(0+8)+2))& (0+255),c
   165  000A3A  6A02               	clrf	((__pbitbssCOMRAM/(0+8)+1))& (0+255),c
   166  000A3C  6A01               	clrf	(__pbitbssCOMRAM/(0+8))& (0+255),c
   167                           
   168                           ; Clear objects allocated to COMRAM (17 bytes)
   169  000A3E  EE00  F004         	lfsr	0,__pbssCOMRAM
   170  000A42  0E11               	movlw	17
   171  000A44                     clear_0:
   172  000A44  6AEE               	clrf	postinc0,c
   173  000A46  06E8               	decf	wreg,f,c
   174  000A48  E1FD               	bnz	clear_0
   175  000A4A                     end_of_initialization:
   176                           	callstack 0
   177  000A4A                     __end_of__initialization:
   178                           	callstack 0
   179  000A4A  0E00               	movlw	low (__Lmediumconst shr (0+16))
   180  000A4C  6EF8               	movwf	tblptru,c
   181  000A4E  0100               	movlb	0
   182  000A50  EFB4  F003         	goto	_main	;jump to C main() function
   183                           
   184                           	psect	bitbssCOMRAM
   185  000008                     __pbitbssCOMRAM:
   186                           	callstack 0
   187  000008                     __ccovbit33_18:
   188                           	callstack 0
   189  000008                     	ds	1
   190  000009                     __ccovbit12_17:
   191                           	callstack 0
   192  000009                     	ds	1
   193  00000A                     __ccovbit14_16:
   194                           	callstack 0
   195  00000A                     	ds	1
   196  00000B                     __ccovbit11_15:
   197                           	callstack 0
   198  00000B                     	ds	1
   199  00000C                     __ccovbit12_14:
   200                           	callstack 0
   201  00000C                     	ds	1
   202  00000D                     __ccovbit11_13:
   203                           	callstack 0
   204  00000D                     	ds	1
   205  00000E                     __ccovbit7_12:
   206                           	callstack 0
   207  00000E                     	ds	1
   208  00000F                     __ccovbit55_11:
   209                           	callstack 0
   210  00000F                     	ds	1
   211  000010                     __ccovbit2_10:
   212                           	callstack 0
   213  000010                     	ds	1
   214  000011                     __ccovbit2_9:
   215                           	callstack 0
   216  000011                     	ds	1
   217  000012                     __ccovbit2_8:
   218                           	callstack 0
   219  000012                     	ds	1
   220  000013                     __ccovbit1_7:
   221                           	callstack 0
   222  000013                     	ds	1
   223  000014                     __ccovbit20_6:
   224                           	callstack 0
   225  000014                     	ds	1
   226  000015                     __ccovbit17_5:
   227                           	callstack 0
   228  000015                     	ds	1
   229  000016                     __ccovbit9_4:
   230                           	callstack 0
   231  000016                     	ds	1
   232  000017                     __ccovbit4_3:
   233                           	callstack 0
   234  000017                     	ds	1
   235  000018                     __ccovbit1_2:
   236                           	callstack 0
   237  000018                     	ds	1
   238  000019                     __ccovbit1_1:
   239                           	callstack 0
   240  000019                     	ds	1
   241                           
   242                           	psect	bssCOMRAM
   243  000004                     __pbssCOMRAM:
   244                           	callstack 0
   245  000004                     ftoat_mio@buf:
   246                           	callstack 0
   247  000004                     	ds	17
   248                           
   249                           	psect	cstackCOMRAM
   250  000015                     __pcstackCOMRAM:
   251                           	callstack 0
   252  000015                     ??_SetDDRamAddr:
   253  000015                     ??_DelayPORXLCD:
   254  000015                     ??_DelayXLCD:
   255  000015                     WriteDataXLCD@data:
   256                           	callstack 0
   257                           
   258                           ; 1 bytes @ 0x0
   259  000015                     	ds	1
   260  000016                     SetDDRamAddr@DDaddr:
   261                           	callstack 0
   262  000016                     WriteCmdXLCD@cmd:
   263                           	callstack 0
   264  000016                     putrsXLCD@buffer:
   265                           	callstack 0
   266                           
   267                           ; 2 bytes @ 0x1
   268  000016                     	ds	1
   269  000017                     ??_OpenXLCD:
   270                           
   271                           ; 1 bytes @ 0x2
   272  000017                     	ds	1
   273  000018                     OpenXLCD@lcdtype:
   274                           	callstack 0
   275                           
   276                           ; 1 bytes @ 0x3
   277  000018                     	ds	1
   278  000019                     ??_main:
   279                           
   280                           ; 1 bytes @ 0x4
   281  000019                     	ds	2
   282                           
   283 ;;
   284 ;;Main: autosize = 0, tempsize = 2, incstack = 0, save=0
   285 ;;
   286 ;; *************** function _main *****************
   287 ;; Defined at:
   288 ;;		line 51 in file "main.c"
   289 ;; Parameters:    Size  Location     Type
   290 ;;		None
   291 ;; Auto vars:     Size  Location     Type
   292 ;;		None
   293 ;; Return value:  Size  Location     Type
   294 ;;                  1    wreg      void 
   295 ;; Registers used:
   296 ;;		wreg, fsr0l, fsr0h, status,2, status,0, tblptrl, tblptrh, tblptru, cstack
   297 ;; Tracked objects:
   298 ;;		On entry : 0/0
   299 ;;		On exit  : 0/0
   300 ;;		Unchanged: 0/0
   301 ;; Data sizes:     COMRAM   BANK0   BANK1   BANK2   BANK3   BANK4   BANK5
   302 ;;      Params:         0       0       0       0       0       0       0
   303 ;;      Locals:         0       0       0       0       0       0       0
   304 ;;      Temps:          2       0       0       0       0       0       0
   305 ;;      Totals:         2       0       0       0       0       0       0
   306 ;;Total ram usage:        2 bytes
   307 ;; Hardware stack levels required when called:    4
   308 ;; This function calls:
   309 ;;		_BusyXLCD
   310 ;;		_LCD_inicio
   311 ;;		_SYSTEM_Initialize
   312 ;;		_SetDDRamAddr
   313 ;;		_WriteCmdXLCD
   314 ;;		_putrsXLCD
   315 ;; This function is called by:
   316 ;;		Startup code after reset
   317 ;; This function uses a non-reentrant model
   318 ;;
   319                           
   320                           	psect	text0
   321  000768                     __ptext0:
   322                           	callstack 0
   323  000768                     _main:
   324                           	callstack 27
   325                           
   326                           ;incstack = 0
   327  000768                     
   328                           ;main.c: 54:     SYSTEM_Initialize();
   329  000768  EC51  F005         	call	_SYSTEM_Initialize	;wreg free
   330  00076C                     __ccov110_end_blk0:
   331                           	callstack 27
   332  00076C                     __ccov111_start_blk1:
   333                           	callstack 27
   334  00076C                     
   335                           ;main.c: 56:     LCD_inicio();
   336  00076C  EC2A  F005         	call	_LCD_inicio	;wreg free
   337  000770                     __ccov111_end_blk1:
   338                           	callstack 27
   339  000770                     __ccov112_start_blk5:
   340                           	callstack 27
   341  000770                     l1248:
   342  000770  EC9F  F004         	call	_BusyXLCD	;wreg free
   343  000774  0900               	iorlw	0
   344  000776  A4D8               	btfss	status,2,c
   345  000778  EFC0  F003         	goto	u251
   346  00077C  EFC2  F003         	goto	u250
   347  000780                     u251:
   348  000780  EFB8  F003         	goto	l1248
   349  000784                     u250:
   350  000784                     __ccov112_end_blk5:
   351                           	callstack 27
   352  000784                     __ccov113_start_blk7:
   353                           	callstack 27
   354  000784                     
   355                           ;main.c: 81:     SetDDRamAddr(0x80);
   356  000784  0E80               	movlw	128
   357  000786  ECC5  F004         	call	_SetDDRamAddr
   358  00078A                     __ccov113_end_blk7:
   359                           	callstack 27
   360  00078A                     __ccov114_start_blk10:
   361                           	callstack 27
   362  00078A                     l1252:
   363  00078A  EC9F  F004         	call	_BusyXLCD	;wreg free
   364  00078E  0900               	iorlw	0
   365  000790  A4D8               	btfss	status,2,c
   366  000792  EFCD  F003         	goto	u261
   367  000796  EFCF  F003         	goto	u260
   368  00079A                     u261:
   369  00079A  EFC5  F003         	goto	l1252
   370  00079E                     u260:
   371  00079E                     __ccov114_end_blk10:
   372                           	callstack 27
   373  00079E                     __ccov115_start_blk12:
   374                           	callstack 27
   375  00079E                     
   376                           ;main.c: 84:     putrsXLCD("Rio Caribe ");
   377  00079E  0E1F               	movlw	low STR_1
   378  0007A0  6E16               	movwf	putrsXLCD@buffer^0,c
   379  0007A2  5016               	movf	putrsXLCD@buffer^0,w,c
   380  0007A4  A4D8               	btfss	status,2,c
   381  0007A6  0E06               	movlw	high __smallconst
   382  0007A8  6E17               	movwf	(putrsXLCD@buffer+1)^0,c
   383  0007AA  EC39  F004         	call	_putrsXLCD	;wreg free
   384  0007AE                     __ccov115_end_blk12:
   385                           	callstack 27
   386  0007AE                     __ccov116_start_blk13:
   387                           	callstack 27
   388  0007AE                     
   389                           ;main.c: 85:     _delay((unsigned long)((2000)*(4000000/4000.0)));
   390  0007AE  0E0B               	movlw	11
   391  0007B0  6E1A               	movwf	(??_main+1)^0,c
   392  0007B2  0E26               	movlw	38
   393  0007B4  6E19               	movwf	??_main^0,c
   394  0007B6  0E5E               	movlw	94
   395  0007B8                     u317:
   396  0007B8  2EE8               	decfsz	wreg,f,c
   397  0007BA  D7FE               	bra	u317
   398  0007BC  2E19               	decfsz	??_main^0,f,c
   399  0007BE  D7FC               	bra	u317
   400  0007C0  2E1A               	decfsz	(??_main+1)^0,f,c
   401  0007C2  D7FA               	bra	u317
   402  0007C4                     __ccov116_end_blk13:
   403                           	callstack 27
   404  0007C4                     __ccov117_start_blk16:
   405                           	callstack 27
   406  0007C4                     l1258:
   407  0007C4  EC9F  F004         	call	_BusyXLCD	;wreg free
   408  0007C8  0900               	iorlw	0
   409  0007CA  A4D8               	btfss	status,2,c
   410  0007CC  EFEA  F003         	goto	u271
   411  0007D0  EFEC  F003         	goto	u270
   412  0007D4                     u271:
   413  0007D4  EFE2  F003         	goto	l1258
   414  0007D8                     u270:
   415  0007D8                     __ccov117_end_blk16:
   416                           	callstack 27
   417  0007D8                     __ccov118_start_blk18:
   418                           	callstack 27
   419  0007D8                     
   420                           ;main.c: 88:     SetDDRamAddr(0xC0);
   421  0007D8  0EC0               	movlw	192
   422  0007DA  ECC5  F004         	call	_SetDDRamAddr
   423  0007DE                     __ccov118_end_blk18:
   424                           	callstack 27
   425  0007DE                     __ccov119_start_blk21:
   426                           	callstack 27
   427  0007DE                     l1262:
   428  0007DE  EC9F  F004         	call	_BusyXLCD	;wreg free
   429  0007E2  0900               	iorlw	0
   430  0007E4  A4D8               	btfss	status,2,c
   431  0007E6  EFF7  F003         	goto	u281
   432  0007EA  EFF9  F003         	goto	u280
   433  0007EE                     u281:
   434  0007EE  EFEF  F003         	goto	l1262
   435  0007F2                     u280:
   436  0007F2                     __ccov119_end_blk21:
   437                           	callstack 27
   438  0007F2                     __ccov120_start_blk23:
   439                           	callstack 27
   440  0007F2                     
   441                           ;main.c: 91:     putrsXLCD(" Sucre ");
   442  0007F2  0E36               	movlw	low STR_2
   443  0007F4  6E16               	movwf	putrsXLCD@buffer^0,c
   444  0007F6  5016               	movf	putrsXLCD@buffer^0,w,c
   445  0007F8  A4D8               	btfss	status,2,c
   446  0007FA  0E06               	movlw	high __smallconst
   447  0007FC  6E17               	movwf	(putrsXLCD@buffer+1)^0,c
   448  0007FE  EC39  F004         	call	_putrsXLCD	;wreg free
   449  000802                     __ccov120_end_blk23:
   450                           	callstack 27
   451  000802                     __ccov121_start_blk24:
   452                           	callstack 27
   453  000802                     
   454                           ;main.c: 92:     _delay((unsigned long)((2000)*(4000000/4000.0)));
   455  000802  0E0B               	movlw	11
   456  000804  6E1A               	movwf	(??_main+1)^0,c
   457  000806  0E26               	movlw	38
   458  000808  6E19               	movwf	??_main^0,c
   459  00080A  0E5E               	movlw	94
   460  00080C                     u327:
   461  00080C  2EE8               	decfsz	wreg,f,c
   462  00080E  D7FE               	bra	u327
   463  000810  2E19               	decfsz	??_main^0,f,c
   464  000812  D7FC               	bra	u327
   465  000814  2E1A               	decfsz	(??_main+1)^0,f,c
   466  000816  D7FA               	bra	u327
   467  000818                     __ccov121_end_blk24:
   468                           	callstack 27
   469  000818                     __ccov122_start_blk27:
   470                           	callstack 27
   471  000818                     l1268:
   472  000818  EC9F  F004         	call	_BusyXLCD	;wreg free
   473  00081C  0900               	iorlw	0
   474  00081E  A4D8               	btfss	status,2,c
   475  000820  EF14  F004         	goto	u291
   476  000824  EF16  F004         	goto	u290
   477  000828                     u291:
   478  000828  EF0C  F004         	goto	l1268
   479  00082C                     u290:
   480  00082C                     __ccov122_end_blk27:
   481                           	callstack 27
   482  00082C                     __ccov123_start_blk29:
   483                           	callstack 27
   484  00082C                     
   485                           ;main.c: 95:     WriteCmdXLCD(0x01);
   486  00082C  0E01               	movlw	1
   487  00082E  EC74  F004         	call	_WriteCmdXLCD
   488  000832                     __ccov123_end_blk29:
   489                           	callstack 27
   490  000832                     __ccov124_start_blk31:
   491                           	callstack 27
   492  000832  B089               	btfsc	137,0,c	;volatile
   493  000834  EF1E  F004         	goto	u301
   494  000838  EF21  F004         	goto	u300
   495  00083C                     u301:
   496  00083C  0E01               	movlw	1
   497  00083E  EF22  F004         	goto	u306
   498  000842                     u300:
   499  000842  0E00               	movlw	0
   500  000844                     u306:
   501  000844  0AFF               	xorlw	255
   502  000846  6E19               	movwf	??_main^0,c
   503  000848  5089               	movf	137,w,c	;volatile
   504  00084A  1819               	xorwf	??_main^0,w,c
   505  00084C  0BFE               	andlw	-2
   506  00084E  1819               	xorwf	??_main^0,w,c
   507  000850  6E89               	movwf	137,c	;volatile
   508  000852                     __ccov124_end_blk31:
   509                           	callstack 27
   510  000852                     __ccov125_start_blk33:
   511                           	callstack 27
   512  000852  8001               	bsf	(__ccovbit33_18/(0+8))^0,__ccovbit33_18& (0+7),c	;volatile
   513                           
   514                           ;main.c: 99:         _delay((unsigned long)((500)*(4000000/4000.0)));
   515  000854  0E03               	movlw	3
   516  000856  6E1A               	movwf	(??_main+1)^0,c
   517  000858  0E8A               	movlw	138
   518  00085A  6E19               	movwf	??_main^0,c
   519  00085C  0E56               	movlw	86
   520  00085E                     u337:
   521  00085E  2EE8               	decfsz	wreg,f,c
   522  000860  D7FE               	bra	u337
   523  000862  2E19               	decfsz	??_main^0,f,c
   524  000864  D7FC               	bra	u337
   525  000866  2E1A               	decfsz	(??_main+1)^0,f,c
   526  000868  D7FA               	bra	u337
   527  00086A  EFB8  F003         	goto	l1248
   528  00086E                     __ccov125_end_blk33:
   529                           	callstack 27
   530  00086E  EF00  F000         	goto	start
   531  000872                     __end_of_main:
   532                           	callstack 0
   533                           
   534 ;; *************** function _putrsXLCD *****************
   535 ;; Defined at:
   536 ;;		line 16 in file "Lib_mias_all/microchip_LCD/putrxlcd.c"
   537 ;; Parameters:    Size  Location     Type
   538 ;;  buffer          2    1[COMRAM] PTR unsigned char 
   539 ;;		 -> STR_6(1), ftoat_mio@buf(17), STR_4(14), STR_3(16), 
   540 ;;		 -> STR_2(8), STR_1(12), 
   541 ;; Auto vars:     Size  Location     Type
   542 ;;		None
   543 ;; Return value:  Size  Location     Type
   544 ;;                  1    wreg      void 
   545 ;; Registers used:
   546 ;;		wreg, fsr0l, fsr0h, status,2, status,0, tblptrl, tblptrh, tblptru, cstack
   547 ;; Tracked objects:
   548 ;;		On entry : 0/0
   549 ;;		On exit  : 0/0
   550 ;;		Unchanged: 0/0
   551 ;; Data sizes:     COMRAM   BANK0   BANK1   BANK2   BANK3   BANK4   BANK5
   552 ;;      Params:         2       0       0       0       0       0       0
   553 ;;      Locals:         0       0       0       0       0       0       0
   554 ;;      Temps:          0       0       0       0       0       0       0
   555 ;;      Totals:         2       0       0       0       0       0       0
   556 ;;Total ram usage:        2 bytes
   557 ;; Hardware stack levels used:    1
   558 ;; Hardware stack levels required when called:    2
   559 ;; This function calls:
   560 ;;		_BusyXLCD
   561 ;;		_WriteDataXLCD
   562 ;; This function is called by:
   563 ;;		_main
   564 ;; This function uses a non-reentrant model
   565 ;;
   566                           
   567                           	psect	text1
   568  000872                     __ptext1:
   569                           	callstack 0
   570  000872                     _putrsXLCD:
   571                           	callstack 28
   572                           
   573                           ;incstack = 0
   574  000872                     
   575                           ;Lib_mias_all/microchip_LCD/putrxlcd.c: 16: void putrsXLCD(char *buffer);Lib_mias_all/mi
      +                          crochip_LCD/putrxlcd.c: 17: {;Lib_mias_all/microchip_LCD/putrxlcd.c: 18:         while(*
      +                          buffer)
   576  000872  EF5A  F004         	goto	l1242
   577  000876                     __ccov67_end_blk0:
   578                           	callstack 28
   579  000876                     __ccov68_start_blk4:
   580                           	callstack 28
   581  000876                     l1236:
   582  000876  EC9F  F004         	call	_BusyXLCD	;wreg free
   583  00087A  0900               	iorlw	0
   584  00087C  A4D8               	btfss	status,2,c
   585  00087E  EF43  F004         	goto	u211
   586  000882  EF45  F004         	goto	u210
   587  000886                     u211:
   588  000886  EF3B  F004         	goto	l1236
   589  00088A                     u210:
   590  00088A                     __ccov68_end_blk4:
   591                           	callstack 28
   592  00088A                     __ccov69_start_blk6:
   593                           	callstack 28
   594  00088A                     
   595                           ;Lib_mias_all/microchip_LCD/putrxlcd.c: 21:                 WriteDataXLCD(*buffer);
   596  00088A  C016  FFF6         	movff	putrsXLCD@buffer,tblptrl
   597  00088E  C017  FFF7         	movff	putrsXLCD@buffer+1,tblptrh
   598  000892  6AF8               	clrf	tblptru,c
   599  000894  0E05               	movlw	(high __ramtop+-1)
   600  000896  64F7               	cpfsgt	tblptrh,c
   601  000898  D003               	bra	u227
   602  00089A  0008               	tblrd		*
   603  00089C  50F5               	movf	tablat,w,c
   604  00089E  D005               	bra	u220
   605  0008A0                     u227:
   606  0008A0  CFF6 FFE9          	movff	tblptrl,fsr0l
   607  0008A4  CFF7 FFEA          	movff	tblptrh,fsr0h
   608  0008A8  50EF               	movf	indf0,w,c
   609  0008AA                     u220:
   610  0008AA  ECE9  F004         	call	_WriteDataXLCD
   611  0008AE                     __ccov69_end_blk6:
   612                           	callstack 28
   613  0008AE                     __ccov70_start_blk7:
   614                           	callstack 28
   615  0008AE  8C01               	bsf	(__ccovbit7_12/(0+8))^0,__ccovbit7_12& (0+7),c	;volatile
   616                           
   617                           ;Lib_mias_all/microchip_LCD/putrxlcd.c: 22:                 buffer++;
   618  0008B0  4A16               	infsnz	putrsXLCD@buffer^0,f,c
   619  0008B2  2A17               	incf	(putrsXLCD@buffer+1)^0,f,c
   620  0008B4                     __ccov70_end_blk7:
   621                           	callstack 28
   622  0008B4                     __ccov71_start_blk9:
   623                           	callstack 28
   624  0008B4                     l1242:
   625                           
   626                           ;Lib_mias_all/microchip_LCD/putrxlcd.c: 18:         while(*buffer)
   627  0008B4  C016  FFF6         	movff	putrsXLCD@buffer,tblptrl
   628  0008B8  C017  FFF7         	movff	putrsXLCD@buffer+1,tblptrh
   629  0008BC  6AF8               	clrf	tblptru,c
   630  0008BE  0E05               	movlw	(high __ramtop+-1)
   631  0008C0  64F7               	cpfsgt	tblptrh,c
   632  0008C2  D003               	bra	u237
   633  0008C4  0008               	tblrd		*
   634  0008C6  50F5               	movf	tablat,w,c
   635  0008C8  D005               	bra	u230
   636  0008CA                     u237:
   637  0008CA  CFF6 FFE9          	movff	tblptrl,fsr0l
   638  0008CE  CFF7 FFEA          	movff	tblptrh,fsr0h
   639  0008D2  50EF               	movf	indf0,w,c
   640  0008D4                     u230:
   641  0008D4  0900               	iorlw	0
   642  0008D6  A4D8               	btfss	status,2,c
   643  0008D8  EF70  F004         	goto	u241
   644  0008DC  EF72  F004         	goto	u240
   645  0008E0                     u241:
   646  0008E0  EF3B  F004         	goto	l1236
   647  0008E4                     u240:
   648  0008E4                     __ccov71_end_blk9:
   649                           	callstack 28
   650  0008E4                     __ccov72_start_blk11:
   651                           	callstack 28
   652  0008E4  8A01               	bsf	(__ccovbit11_13/(0+8))^0,__ccovbit11_13& (0+7),c	;volatile
   653  0008E6  0012               	return		;funcret
   654  0008E8                     __end_of_putrsXLCD:
   655                           	callstack 0
   656  0000                     
   657 ;; *************** function _WriteDataXLCD *****************
   658 ;; Defined at:
   659 ;;		line 16 in file "Lib_mias_all/microchip_LCD/writdata.c"
   660 ;; Parameters:    Size  Location     Type
   661 ;;  data            1    wreg     unsigned char 
   662 ;; Auto vars:     Size  Location     Type
   663 ;;  data            1    0[COMRAM] unsigned char 
   664 ;; Return value:  Size  Location     Type
   665 ;;                  1    wreg      void 
   666 ;; Registers used:
   667 ;;		wreg, status,2, status,0, cstack
   668 ;; Tracked objects:
   669 ;;		On entry : 0/0
   670 ;;		On exit  : 0/0
   671 ;;		Unchanged: 0/0
   672 ;; Data sizes:     COMRAM   BANK0   BANK1   BANK2   BANK3   BANK4   BANK5
   673 ;;      Params:         0       0       0       0       0       0       0
   674 ;;      Locals:         1       0       0       0       0       0       0
   675 ;;      Temps:          0       0       0       0       0       0       0
   676 ;;      Totals:         1       0       0       0       0       0       0
   677 ;;Total ram usage:        1 bytes
   678 ;; Hardware stack levels used:    1
   679 ;; Hardware stack levels required when called:    1
   680 ;; This function calls:
   681 ;;		_DelayFor18TCY
   682 ;; This function is called by:
   683 ;;		_putrsXLCD
   684 ;; This function uses a non-reentrant model
   685 ;;
   686                           
   687                           	psect	text2
   688  0009D2                     __ptext2:
   689                           	callstack 0
   690  0009D2                     _WriteDataXLCD:
   691                           	callstack 28
   692                           
   693                           ;incstack = 0
   694                           ;WriteDataXLCD@data stored from wreg
   695  0009D2  6E15               	movwf	WriteDataXLCD@data^0,c
   696  0009D4                     
   697                           ;Lib_mias_all/microchip_LCD/writdata.c: 16: void WriteDataXLCD(char data);Lib_mias_all/m
      +                          icrochip_LCD/writdata.c: 17: {;Lib_mias_all/microchip_LCD/writdata.c: 35:         TRISB 
      +                          &= 0xf0;
   698  0009D4  0EF0               	movlw	240
   699  0009D6  1693               	andwf	147,f,c	;volatile
   700                           
   701                           ;Lib_mias_all/microchip_LCD/writdata.c: 36:         PORTB &= 0xf0;
   702  0009D8  0EF0               	movlw	240
   703  0009DA  1681               	andwf	129,f,c	;volatile
   704                           
   705                           ;Lib_mias_all/microchip_LCD/writdata.c: 37:         PORTB |= ((data>>4)&0x0f);
   706  0009DC  3815               	swapf	WriteDataXLCD@data^0,w,c
   707  0009DE  0B0F               	andlw	15
   708  0009E0  0B0F               	andlw	15
   709  0009E2  1281               	iorwf	129,f,c	;volatile
   710  0009E4                     __ccov98_end_blk0:
   711                           	callstack 28
   712  0009E4                     __ccov99_start_blk1:
   713                           	callstack 28
   714  0009E4                     
   715                           ;Lib_mias_all/microchip_LCD/writdata.c: 39:         LATCbits.LATC0 = 1;
   716  0009E4  808B               	bsf	139,0,c	;volatile
   717  0009E6                     __ccov99_end_blk1:
   718                           	callstack 28
   719  0009E6                     __ccov100_start_blk2:
   720                           	callstack 28
   721  0009E6                     
   722                           ;Lib_mias_all/microchip_LCD/writdata.c: 40:         LATBbits.LATB5 = 0;
   723  0009E6  9A8A               	bcf	138,5,c	;volatile
   724  0009E8                     __ccov100_end_blk2:
   725                           	callstack 28
   726  0009E8                     __ccov101_start_blk3:
   727                           	callstack 28
   728  0009E8                     
   729                           ;Lib_mias_all/microchip_LCD/writdata.c: 41:         DelayFor18TCY();
   730  0009E8  EC4A  F005         	call	_DelayFor18TCY	;wreg free
   731  0009EC                     __ccov101_end_blk3:
   732                           	callstack 28
   733  0009EC                     __ccov102_start_blk4:
   734                           	callstack 28
   735  0009EC                     
   736                           ;Lib_mias_all/microchip_LCD/writdata.c: 42:         LATBbits.LATB6 = 1;
   737  0009EC  8C8A               	bsf	138,6,c	;volatile
   738  0009EE                     __ccov102_end_blk4:
   739                           	callstack 28
   740  0009EE                     __ccov103_start_blk5:
   741                           	callstack 28
   742  0009EE                     
   743                           ;Lib_mias_all/microchip_LCD/writdata.c: 43:         DelayFor18TCY();
   744  0009EE  EC4A  F005         	call	_DelayFor18TCY	;wreg free
   745  0009F2                     __ccov103_end_blk5:
   746                           	callstack 28
   747  0009F2                     __ccov104_start_blk6:
   748                           	callstack 28
   749  0009F2                     
   750                           ;Lib_mias_all/microchip_LCD/writdata.c: 44:         LATBbits.LATB6 = 0;
   751  0009F2  9C8A               	bcf	138,6,c	;volatile
   752                           
   753                           ;Lib_mias_all/microchip_LCD/writdata.c: 49:         PORTB &= 0xf0;
   754  0009F4  0EF0               	movlw	240
   755  0009F6  1681               	andwf	129,f,c	;volatile
   756                           
   757                           ;Lib_mias_all/microchip_LCD/writdata.c: 50:         PORTB |= (data&0x0f);
   758  0009F8  5015               	movf	WriteDataXLCD@data^0,w,c
   759  0009FA  0B0F               	andlw	15
   760  0009FC  1281               	iorwf	129,f,c	;volatile
   761  0009FE                     __ccov104_end_blk6:
   762                           	callstack 28
   763  0009FE                     __ccov105_start_blk7:
   764                           	callstack 28
   765  0009FE                     
   766                           ;Lib_mias_all/microchip_LCD/writdata.c: 52:         DelayFor18TCY();
   767  0009FE  EC4A  F005         	call	_DelayFor18TCY	;wreg free
   768  000A02                     __ccov105_end_blk7:
   769                           	callstack 28
   770  000A02                     __ccov106_start_blk8:
   771                           	callstack 28
   772  000A02                     
   773                           ;Lib_mias_all/microchip_LCD/writdata.c: 53:         LATBbits.LATB6 = 1;
   774  000A02  8C8A               	bsf	138,6,c	;volatile
   775  000A04                     __ccov106_end_blk8:
   776                           	callstack 28
   777  000A04                     __ccov107_start_blk9:
   778                           	callstack 28
   779  000A04                     
   780                           ;Lib_mias_all/microchip_LCD/writdata.c: 54:         DelayFor18TCY();
   781  000A04  EC4A  F005         	call	_DelayFor18TCY	;wreg free
   782  000A08                     __ccov107_end_blk9:
   783                           	callstack 28
   784  000A08                     __ccov108_start_blk10:
   785                           	callstack 28
   786  000A08                     
   787                           ;Lib_mias_all/microchip_LCD/writdata.c: 55:         LATBbits.LATB6 = 0;
   788  000A08  9C8A               	bcf	138,6,c	;volatile
   789                           
   790                           ;Lib_mias_all/microchip_LCD/writdata.c: 59:         TRISB |= 0x0f;
   791  000A0A  0E0F               	movlw	15
   792  000A0C  1293               	iorwf	147,f,c	;volatile
   793  000A0E                     __ccov108_end_blk10:
   794                           	callstack 28
   795  000A0E                     __ccov109_start_blk12:
   796                           	callstack 28
   797  000A0E  8201               	bsf	(__ccovbit12_17/(0+8))^0,__ccovbit12_17& (0+7),c	;volatile
   798  000A10  0012               	return		;funcret
   799  000A12                     __end_of_WriteDataXLCD:
   800                           	callstack 0
   801  0000                     
   802 ;; *************** function _SYSTEM_Initialize *****************
   803 ;; Defined at:
   804 ;;		line 50 in file "mcc_generated_files/mcc.c"
   805 ;; Parameters:    Size  Location     Type
   806 ;;		None
   807 ;; Auto vars:     Size  Location     Type
   808 ;;		None
   809 ;; Return value:  Size  Location     Type
   810 ;;                  1    wreg      void 
   811 ;; Registers used:
   812 ;;		wreg, status,2, cstack
   813 ;; Tracked objects:
   814 ;;		On entry : 0/0
   815 ;;		On exit  : 0/0
   816 ;;		Unchanged: 0/0
   817 ;; Data sizes:     COMRAM   BANK0   BANK1   BANK2   BANK3   BANK4   BANK5
   818 ;;      Params:         0       0       0       0       0       0       0
   819 ;;      Locals:         0       0       0       0       0       0       0
   820 ;;      Temps:          0       0       0       0       0       0       0
   821 ;;      Totals:         0       0       0       0       0       0       0
   822 ;;Total ram usage:        0 bytes
   823 ;; Hardware stack levels used:    1
   824 ;; Hardware stack levels required when called:    1
   825 ;; This function calls:
   826 ;;		_OSCILLATOR_Initialize
   827 ;;		_PIN_MANAGER_Initialize
   828 ;; This function is called by:
   829 ;;		_main
   830 ;; This function uses a non-reentrant model
   831 ;;
   832                           
   833                           	psect	text3
   834  000AA2                     __ptext3:
   835                           	callstack 0
   836  000AA2                     _SYSTEM_Initialize:
   837                           	callstack 29
   838                           
   839                           ;incstack = 0
   840  000AA2                     
   841                           ;mcc_generated_files/mcc.c: 53:     PIN_MANAGER_Initialize();
   842  000AA2  EC09  F005         	call	_PIN_MANAGER_Initialize	;wreg free
   843                           
   844                           ;mcc_generated_files/mcc.c: 54:     OSCILLATOR_Initialize();
   845  000AA6  EC57  F005         	call	_OSCILLATOR_Initialize	;wreg free
   846  000AAA                     __ccov1_end_blk0:
   847                           	callstack 29
   848  000AAA                     __ccov2_start_blk1:
   849                           	callstack 29
   850  000AAA  8203               	bsf	(__ccovbit1_1/(0+8))^0,__ccovbit1_1& (0+7),c	;volatile
   851  000AAC  0012               	return		;funcret
   852  000AAE                     __end_of_SYSTEM_Initialize:
   853                           	callstack 0
   854  0000                     
   855 ;; *************** function _PIN_MANAGER_Initialize *****************
   856 ;; Defined at:
   857 ;;		line 55 in file "mcc_generated_files/pin_manager.c"
   858 ;; Parameters:    Size  Location     Type
   859 ;;		None
   860 ;; Auto vars:     Size  Location     Type
   861 ;;		None
   862 ;; Return value:  Size  Location     Type
   863 ;;                  1    wreg      void 
   864 ;; Registers used:
   865 ;;		wreg, status,2
   866 ;; Tracked objects:
   867 ;;		On entry : 0/0
   868 ;;		On exit  : 0/0
   869 ;;		Unchanged: 0/0
   870 ;; Data sizes:     COMRAM   BANK0   BANK1   BANK2   BANK3   BANK4   BANK5
   871 ;;      Params:         0       0       0       0       0       0       0
   872 ;;      Locals:         0       0       0       0       0       0       0
   873 ;;      Temps:          0       0       0       0       0       0       0
   874 ;;      Totals:         0       0       0       0       0       0       0
   875 ;;Total ram usage:        0 bytes
   876 ;; Hardware stack levels used:    1
   877 ;; This function calls:
   878 ;;		Nothing
   879 ;; This function is called by:
   880 ;;		_SYSTEM_Initialize
   881 ;; This function uses a non-reentrant model
   882 ;;
   883                           
   884                           	psect	text4
   885  000A12                     __ptext4:
   886                           	callstack 0
   887  000A12                     _PIN_MANAGER_Initialize:
   888                           	callstack 29
   889                           
   890                           ;incstack = 0
   891  000A12                     
   892                           ;mcc_generated_files/pin_manager.c: 60:     LATA = 0x02;
   893  000A12  0E02               	movlw	2
   894  000A14  6E89               	movwf	137,c	;volatile
   895                           
   896                           ;mcc_generated_files/pin_manager.c: 61:     LATB = 0x00;
   897  000A16  0E00               	movlw	0
   898  000A18  6E8A               	movwf	138,c	;volatile
   899                           
   900                           ;mcc_generated_files/pin_manager.c: 62:     LATC = 0x00;
   901  000A1A  0E00               	movlw	0
   902  000A1C  6E8B               	movwf	139,c	;volatile
   903                           
   904                           ;mcc_generated_files/pin_manager.c: 67:     TRISA = 0xFC;
   905  000A1E  0EFC               	movlw	252
   906  000A20  6E92               	movwf	146,c	;volatile
   907  000A22                     __ccov5_end_blk0:
   908                           	callstack 29
   909  000A22                     __ccov6_start_blk1:
   910                           	callstack 29
   911  000A22                     
   912                           ;mcc_generated_files/pin_manager.c: 68:     TRISB = 0xFF;
   913  000A22  6893               	setf	147,c	;volatile
   914  000A24                     __ccov6_end_blk1:
   915                           	callstack 29
   916  000A24                     __ccov7_start_blk2:
   917                           	callstack 29
   918  000A24                     
   919                           ;mcc_generated_files/pin_manager.c: 69:     TRISC = 0xFF;
   920  000A24  6894               	setf	148,c	;volatile
   921                           
   922                           ;mcc_generated_files/pin_manager.c: 74:     ANSEL = 0x1C;
   923  000A26  0E1C               	movlw	28
   924  000A28  6E7E               	movwf	126,c	;volatile
   925                           
   926                           ;mcc_generated_files/pin_manager.c: 75:     ANSELH = 0x1F;
   927  000A2A  0E1F               	movlw	31
   928  000A2C  6E7F               	movwf	127,c	;volatile
   929                           
   930                           ;mcc_generated_files/pin_manager.c: 80:     WPUB = 0x00;
   931  000A2E  0E00               	movlw	0
   932  000A30  6E7C               	movwf	124,c	;volatile
   933  000A32                     __ccov7_end_blk2:
   934                           	callstack 29
   935  000A32                     __ccov8_start_blk3:
   936                           	callstack 29
   937  000A32                     
   938                           ;mcc_generated_files/pin_manager.c: 81:     INTCON2bits.nRBPU = 1;
   939  000A32  8EF1               	bsf	241,7,c	;volatile
   940  000A34                     __ccov8_end_blk3:
   941                           	callstack 29
   942  000A34                     __ccov9_start_blk4:
   943                           	callstack 29
   944  000A34  8E02               	bsf	(__ccovbit4_3/(0+8))^0,__ccovbit4_3& (0+7),c	;volatile
   945  000A36  0012               	return		;funcret
   946  000A38                     __end_of_PIN_MANAGER_Initialize:
   947                           	callstack 0
   948  0000                     
   949 ;; *************** function _OSCILLATOR_Initialize *****************
   950 ;; Defined at:
   951 ;;		line 57 in file "mcc_generated_files/mcc.c"
   952 ;; Parameters:    Size  Location     Type
   953 ;;		None
   954 ;; Auto vars:     Size  Location     Type
   955 ;;		None
   956 ;; Return value:  Size  Location     Type
   957 ;;                  1    wreg      void 
   958 ;; Registers used:
   959 ;;		wreg, status,2
   960 ;; Tracked objects:
   961 ;;		On entry : 0/0
   962 ;;		On exit  : 0/0
   963 ;;		Unchanged: 0/0
   964 ;; Data sizes:     COMRAM   BANK0   BANK1   BANK2   BANK3   BANK4   BANK5
   965 ;;      Params:         0       0       0       0       0       0       0
   966 ;;      Locals:         0       0       0       0       0       0       0
   967 ;;      Temps:          0       0       0       0       0       0       0
   968 ;;      Totals:         0       0       0       0       0       0       0
   969 ;;Total ram usage:        0 bytes
   970 ;; Hardware stack levels used:    1
   971 ;; This function calls:
   972 ;;		Nothing
   973 ;; This function is called by:
   974 ;;		_SYSTEM_Initialize
   975 ;; This function uses a non-reentrant model
   976 ;;
   977                           
   978                           	psect	text5
   979  000AAE                     __ptext5:
   980                           	callstack 0
   981  000AAE                     _OSCILLATOR_Initialize:
   982                           	callstack 29
   983                           
   984                           ;incstack = 0
   985  000AAE                     
   986                           ;mcc_generated_files/mcc.c: 60:     OSCCON = 0x30;
   987  000AAE  0E30               	movlw	48
   988  000AB0  6ED3               	movwf	211,c	;volatile
   989                           
   990                           ;mcc_generated_files/mcc.c: 62:     OSCTUNE = 0x00;
   991  000AB2  0E00               	movlw	0
   992  000AB4  6E9B               	movwf	155,c	;volatile
   993  000AB6                     __ccov3_end_blk0:
   994                           	callstack 29
   995  000AB6                     __ccov4_start_blk1:
   996                           	callstack 29
   997  000AB6  8003               	bsf	(__ccovbit1_2/(0+8))^0,__ccovbit1_2& (0+7),c	;volatile
   998  000AB8  0012               	return		;funcret
   999  000ABA                     __end_of_OSCILLATOR_Initialize:
  1000                           	callstack 0
  1001  0000                     
  1002 ;; *************** function _LCD_inicio *****************
  1003 ;; Defined at:
  1004 ;;		line 8 in file "Lib_mias_all/microchip_LCD/LCD_inicio.c"
  1005 ;; Parameters:    Size  Location     Type
  1006 ;;		None
  1007 ;; Auto vars:     Size  Location     Type
  1008 ;;		None
  1009 ;; Return value:  Size  Location     Type
  1010 ;;                  1    wreg      void 
  1011 ;; Registers used:
  1012 ;;		wreg, status,2, status,0, cstack
  1013 ;; Tracked objects:
  1014 ;;		On entry : 0/0
  1015 ;;		On exit  : 0/0
  1016 ;;		Unchanged: 0/0
  1017 ;; Data sizes:     COMRAM   BANK0   BANK1   BANK2   BANK3   BANK4   BANK5
  1018 ;;      Params:         0       0       0       0       0       0       0
  1019 ;;      Locals:         0       0       0       0       0       0       0
  1020 ;;      Temps:          0       0       0       0       0       0       0
  1021 ;;      Totals:         0       0       0       0       0       0       0
  1022 ;;Total ram usage:        0 bytes
  1023 ;; Hardware stack levels used:    1
  1024 ;; Hardware stack levels required when called:    3
  1025 ;; This function calls:
  1026 ;;		_DelayXLCD
  1027 ;;		_OpenXLCD
  1028 ;;		_WriteCmdXLCD
  1029 ;; This function is called by:
  1030 ;;		_main
  1031 ;; This function uses a non-reentrant model
  1032 ;;
  1033                           
  1034                           	psect	text6
  1035  000A54                     __ptext6:
  1036                           	callstack 0
  1037  000A54                     _LCD_inicio:
  1038                           	callstack 27
  1039                           
  1040                           ;incstack = 0
  1041  000A54                     
  1042                           ;Lib_mias_all/microchip_LCD/LCD_inicio.c: 11: OpenXLCD(0b00101100 & 0b00111000);
  1043  000A54  0E28               	movlw	40
  1044  000A56  EC20  F003         	call	_OpenXLCD
  1045                           
  1046                           ;Lib_mias_all/microchip_LCD/LCD_inicio.c: 12: WriteCmdXLCD(0b00000110);
  1047  000A5A  0E06               	movlw	6
  1048  000A5C  EC74  F004         	call	_WriteCmdXLCD
  1049                           
  1050                           ;Lib_mias_all/microchip_LCD/LCD_inicio.c: 13: WriteCmdXLCD(0b00001110);
  1051  000A60  0E0E               	movlw	14
  1052  000A62  EC74  F004         	call	_WriteCmdXLCD
  1053  000A66                     __ccov33_end_blk0:
  1054                           	callstack 27
  1055  000A66                     __ccov34_start_blk1:
  1056                           	callstack 27
  1057  000A66                     
  1058                           ;Lib_mias_all/microchip_LCD/LCD_inicio.c: 14: DelayXLCD();
  1059  000A66  EC37  F005         	call	_DelayXLCD	;wreg free
  1060  000A6A                     __ccov34_end_blk1:
  1061                           	callstack 27
  1062  000A6A                     __ccov35_start_blk2:
  1063                           	callstack 27
  1064  000A6A  8002               	bsf	(__ccovbit2_10/(0+8))^0,__ccovbit2_10& (0+7),c	;volatile
  1065  000A6C  0012               	return		;funcret
  1066  000A6E                     __end_of_LCD_inicio:
  1067                           	callstack 0
  1068  0000                     
  1069 ;; *************** function _OpenXLCD *****************
  1070 ;; Defined at:
  1071 ;;		line 20 in file "Lib_mias_all/microchip_LCD/openxlcd.c"
  1072 ;; Parameters:    Size  Location     Type
  1073 ;;  lcdtype         1    wreg     unsigned char 
  1074 ;; Auto vars:     Size  Location     Type
  1075 ;;  lcdtype         1    3[COMRAM] unsigned char 
  1076 ;; Return value:  Size  Location     Type
  1077 ;;                  1    wreg      void 
  1078 ;; Registers used:
  1079 ;;		wreg, status,2, status,0, cstack
  1080 ;; Tracked objects:
  1081 ;;		On entry : 0/0
  1082 ;;		On exit  : 0/0
  1083 ;;		Unchanged: 0/0
  1084 ;; Data sizes:     COMRAM   BANK0   BANK1   BANK2   BANK3   BANK4   BANK5
  1085 ;;      Params:         0       0       0       0       0       0       0
  1086 ;;      Locals:         1       0       0       0       0       0       0
  1087 ;;      Temps:          1       0       0       0       0       0       0
  1088 ;;      Totals:         2       0       0       0       0       0       0
  1089 ;;Total ram usage:        2 bytes
  1090 ;; Hardware stack levels used:    1
  1091 ;; Hardware stack levels required when called:    2
  1092 ;; This function calls:
  1093 ;;		_BusyXLCD
  1094 ;;		_SetDDRamAddr
  1095 ;;		_WriteCmdXLCD
  1096 ;; This function is called by:
  1097 ;;		_LCD_inicio
  1098 ;; This function uses a non-reentrant model
  1099 ;;
  1100                           
  1101                           	psect	text7
  1102  000640                     __ptext7:
  1103                           	callstack 0
  1104  000640                     _OpenXLCD:
  1105                           	callstack 27
  1106                           
  1107                           ;incstack = 0
  1108                           ;OpenXLCD@lcdtype stored from wreg
  1109  000640  6E18               	movwf	OpenXLCD@lcdtype^0,c
  1110  000642                     
  1111                           ;Lib_mias_all/microchip_LCD/openxlcd.c: 20: void OpenXLCD(unsigned char lcdtype);Lib_mia
      +                          s_all/microchip_LCD/openxlcd.c: 21: {;Lib_mias_all/microchip_LCD/openxlcd.c: 32:        
      +                           PORTB &= 0xf0;
  1112  000642  0EF0               	movlw	240
  1113  000644  1681               	andwf	129,f,c	;volatile
  1114                           
  1115                           ;Lib_mias_all/microchip_LCD/openxlcd.c: 33:         TRISB &= 0xF0;
  1116  000646  0EF0               	movlw	240
  1117  000648  1693               	andwf	147,f,c	;volatile
  1118  00064A                     __ccov36_end_blk0:
  1119                           	callstack 27
  1120  00064A                     __ccov37_start_blk1:
  1121                           	callstack 27
  1122  00064A                     
  1123                           ;Lib_mias_all/microchip_LCD/openxlcd.c: 36:         TRISBbits.TRISB5 = 0;
  1124  00064A  9A93               	bcf	147,5,c	;volatile
  1125  00064C                     __ccov37_end_blk1:
  1126                           	callstack 27
  1127  00064C                     __ccov38_start_blk2:
  1128                           	callstack 27
  1129  00064C                     
  1130                           ;Lib_mias_all/microchip_LCD/openxlcd.c: 37:         TRISCbits.TRISC0 = 0;
  1131  00064C  9094               	bcf	148,0,c	;volatile
  1132  00064E                     __ccov38_end_blk2:
  1133                           	callstack 27
  1134  00064E                     __ccov39_start_blk3:
  1135                           	callstack 27
  1136  00064E                     
  1137                           ;Lib_mias_all/microchip_LCD/openxlcd.c: 38:         TRISBbits.TRISB6 = 0;
  1138  00064E  9C93               	bcf	147,6,c	;volatile
  1139  000650                     __ccov39_end_blk3:
  1140                           	callstack 27
  1141  000650                     __ccov40_start_blk4:
  1142                           	callstack 27
  1143  000650                     
  1144                           ;Lib_mias_all/microchip_LCD/openxlcd.c: 39:         LATBbits.LATB5 = 0;
  1145  000650  9A8A               	bcf	138,5,c	;volatile
  1146  000652                     __ccov40_end_blk4:
  1147                           	callstack 27
  1148  000652                     __ccov41_start_blk5:
  1149                           	callstack 27
  1150  000652                     
  1151                           ;Lib_mias_all/microchip_LCD/openxlcd.c: 40:         LATCbits.LATC0 = 0;
  1152  000652  908B               	bcf	139,0,c	;volatile
  1153  000654                     __ccov41_end_blk5:
  1154                           	callstack 27
  1155  000654                     __ccov42_start_blk6:
  1156                           	callstack 27
  1157  000654                     
  1158                           ;Lib_mias_all/microchip_LCD/openxlcd.c: 41:         LATBbits.LATB6 = 0;
  1159  000654  9C8A               	bcf	138,6,c	;volatile
  1160  000656                     __ccov42_end_blk6:
  1161                           	callstack 27
  1162  000656                     __ccov43_start_blk7:
  1163                           	callstack 27
  1164  000656                     
  1165                           ;Lib_mias_all/microchip_LCD/openxlcd.c: 45:         _delay((unsigned long)((15)*(4000000
      +                          /4000.0)));
  1166  000656  0E14               	movlw	20
  1167  000658  6E17               	movwf	??_OpenXLCD^0,c
  1168  00065A  0E7A               	movlw	122
  1169  00065C                     u347:
  1170  00065C  2EE8               	decfsz	wreg,f,c
  1171  00065E  D7FE               	bra	u347
  1172  000660  2E17               	decfsz	??_OpenXLCD^0,f,c
  1173  000662  D7FC               	bra	u347
  1174  000664                     __ccov43_end_blk7:
  1175                           	callstack 27
  1176  000664                     __ccov44_start_blk8:
  1177                           	callstack 27
  1178  000664                     
  1179                           ;Lib_mias_all/microchip_LCD/openxlcd.c: 50:   WriteCmdXLCD(0x30);
  1180  000664  0E30               	movlw	48
  1181  000666  EC74  F004         	call	_WriteCmdXLCD
  1182  00066A                     __ccov44_end_blk8:
  1183                           	callstack 27
  1184  00066A                     __ccov45_start_blk9:
  1185                           	callstack 27
  1186  00066A                     
  1187                           ;Lib_mias_all/microchip_LCD/openxlcd.c: 51:         _delay((unsigned long)((5)*(4000000/
      +                          4000.0)));
  1188  00066A  0E07               	movlw	7
  1189  00066C  6E17               	movwf	??_OpenXLCD^0,c
  1190  00066E  0E7D               	movlw	125
  1191  000670                     u357:
  1192  000670  2EE8               	decfsz	wreg,f,c
  1193  000672  D7FE               	bra	u357
  1194  000674  2E17               	decfsz	??_OpenXLCD^0,f,c
  1195  000676  D7FC               	bra	u357
  1196  000678  F000               	nop	
  1197  00067A                     __ccov45_end_blk9:
  1198                           	callstack 27
  1199  00067A                     __ccov46_start_blk10:
  1200                           	callstack 27
  1201  00067A                     
  1202                           ;Lib_mias_all/microchip_LCD/openxlcd.c: 55:   WriteCmdXLCD(0x30);
  1203  00067A  0E30               	movlw	48
  1204  00067C  EC74  F004         	call	_WriteCmdXLCD
  1205  000680                     __ccov46_end_blk10:
  1206                           	callstack 27
  1207  000680                     __ccov47_start_blk11:
  1208                           	callstack 27
  1209  000680                     
  1210                           ;Lib_mias_all/microchip_LCD/openxlcd.c: 56:         _delay((unsigned long)((100)*(400000
      +                          0/4000000.0)));
  1211  000680  0E21               	movlw	33
  1212  000682                     u367:
  1213  000682  2EE8               	decfsz	wreg,f,c
  1214  000684  D7FE               	bra	u367
  1215  000686  F000               	nop	
  1216  000688                     __ccov47_end_blk11:
  1217                           	callstack 27
  1218  000688                     __ccov48_start_blk12:
  1219                           	callstack 27
  1220  000688                     
  1221                           ;Lib_mias_all/microchip_LCD/openxlcd.c: 61:         WriteCmdXLCD(0x30);
  1222  000688  0E30               	movlw	48
  1223  00068A  EC74  F004         	call	_WriteCmdXLCD
  1224  00068E                     __ccov48_end_blk12:
  1225                           	callstack 27
  1226  00068E                     __ccov49_start_blk13:
  1227                           	callstack 27
  1228  00068E                     
  1229                           ;Lib_mias_all/microchip_LCD/openxlcd.c: 62:         _delay((unsigned long)((30)*(4000000
      +                          /4000000.0)));
  1230  00068E  0E0A               	movlw	10
  1231  000690                     u377:
  1232  000690  2EE8               	decfsz	wreg,f,c
  1233  000692  D7FE               	bra	u377
  1234  000694                     __ccov49_end_blk13:
  1235                           	callstack 27
  1236  000694                     __ccov50_start_blk16:
  1237                           	callstack 27
  1238  000694                     l1128:
  1239                           
  1240                           ;Lib_mias_all/microchip_LCD/openxlcd.c: 65:   while( BusyXLCD() )
  1241  000694  EC9F  F004         	call	_BusyXLCD	;wreg free
  1242  000698  0900               	iorlw	0
  1243  00069A  A4D8               	btfss	status,2,c
  1244  00069C  EF52  F003         	goto	u31
  1245  0006A0  EF54  F003         	goto	u30
  1246  0006A4                     u31:
  1247  0006A4  EF4A  F003         	goto	l1128
  1248  0006A8                     u30:
  1249  0006A8                     __ccov50_end_blk16:
  1250                           	callstack 27
  1251  0006A8                     __ccov51_start_blk18:
  1252                           	callstack 27
  1253  0006A8                     
  1254                           ;Lib_mias_all/microchip_LCD/openxlcd.c: 67:         WriteCmdXLCD(0x32);
  1255  0006A8  0E32               	movlw	50
  1256  0006AA  EC74  F004         	call	_WriteCmdXLCD
  1257  0006AE                     __ccov51_end_blk18:
  1258                           	callstack 27
  1259  0006AE                     __ccov52_start_blk21:
  1260                           	callstack 27
  1261  0006AE                     l1132:
  1262  0006AE  EC9F  F004         	call	_BusyXLCD	;wreg free
  1263  0006B2  0900               	iorlw	0
  1264  0006B4  A4D8               	btfss	status,2,c
  1265  0006B6  EF5F  F003         	goto	u41
  1266  0006BA  EF61  F003         	goto	u40
  1267  0006BE                     u41:
  1268  0006BE  EF57  F003         	goto	l1132
  1269  0006C2                     u40:
  1270  0006C2                     __ccov52_end_blk21:
  1271                           	callstack 27
  1272  0006C2                     __ccov53_start_blk23:
  1273                           	callstack 27
  1274  0006C2                     
  1275                           ;Lib_mias_all/microchip_LCD/openxlcd.c: 73:         WriteCmdXLCD(lcdtype);
  1276  0006C2  5018               	movf	OpenXLCD@lcdtype^0,w,c
  1277  0006C4  EC74  F004         	call	_WriteCmdXLCD
  1278  0006C8                     __ccov53_end_blk23:
  1279                           	callstack 27
  1280  0006C8                     __ccov54_start_blk26:
  1281                           	callstack 27
  1282  0006C8                     l1136:
  1283  0006C8  EC9F  F004         	call	_BusyXLCD	;wreg free
  1284  0006CC  0900               	iorlw	0
  1285  0006CE  A4D8               	btfss	status,2,c
  1286  0006D0  EF6C  F003         	goto	u51
  1287  0006D4  EF6E  F003         	goto	u50
  1288  0006D8                     u51:
  1289  0006D8  EF64  F003         	goto	l1136
  1290  0006DC                     u50:
  1291  0006DC                     __ccov54_end_blk26:
  1292                           	callstack 27
  1293  0006DC                     __ccov55_start_blk28:
  1294                           	callstack 27
  1295  0006DC                     
  1296                           ;Lib_mias_all/microchip_LCD/openxlcd.c: 77:         WriteCmdXLCD(0b00001011&0b00001101&0
      +                          b00001110);
  1297  0006DC  0E08               	movlw	8
  1298  0006DE  EC74  F004         	call	_WriteCmdXLCD
  1299  0006E2                     __ccov55_end_blk28:
  1300                           	callstack 27
  1301  0006E2                     __ccov56_start_blk31:
  1302                           	callstack 27
  1303  0006E2                     l1140:
  1304  0006E2  EC9F  F004         	call	_BusyXLCD	;wreg free
  1305  0006E6  0900               	iorlw	0
  1306  0006E8  A4D8               	btfss	status,2,c
  1307  0006EA  EF79  F003         	goto	u61
  1308  0006EE  EF7B  F003         	goto	u60
  1309  0006F2                     u61:
  1310  0006F2  EF71  F003         	goto	l1140
  1311  0006F6                     u60:
  1312  0006F6                     __ccov56_end_blk31:
  1313                           	callstack 27
  1314  0006F6                     __ccov57_start_blk33:
  1315                           	callstack 27
  1316  0006F6                     
  1317                           ;Lib_mias_all/microchip_LCD/openxlcd.c: 79:         WriteCmdXLCD(0b00001111&0b00001111&0
      +                          b00001111);
  1318  0006F6  0E0F               	movlw	15
  1319  0006F8  EC74  F004         	call	_WriteCmdXLCD
  1320  0006FC                     __ccov57_end_blk33:
  1321                           	callstack 27
  1322  0006FC                     __ccov58_start_blk36:
  1323                           	callstack 27
  1324  0006FC                     l1144:
  1325  0006FC  EC9F  F004         	call	_BusyXLCD	;wreg free
  1326  000700  0900               	iorlw	0
  1327  000702  A4D8               	btfss	status,2,c
  1328  000704  EF86  F003         	goto	u71
  1329  000708  EF88  F003         	goto	u70
  1330  00070C                     u71:
  1331  00070C  EF7E  F003         	goto	l1144
  1332  000710                     u70:
  1333  000710                     __ccov58_end_blk36:
  1334                           	callstack 27
  1335  000710                     __ccov59_start_blk38:
  1336                           	callstack 27
  1337  000710                     
  1338                           ;Lib_mias_all/microchip_LCD/openxlcd.c: 83:         WriteCmdXLCD(0x01);
  1339  000710  0E01               	movlw	1
  1340  000712  EC74  F004         	call	_WriteCmdXLCD
  1341  000716                     __ccov59_end_blk38:
  1342                           	callstack 27
  1343  000716                     __ccov60_start_blk41:
  1344                           	callstack 27
  1345  000716                     l1148:
  1346  000716  EC9F  F004         	call	_BusyXLCD	;wreg free
  1347  00071A  0900               	iorlw	0
  1348  00071C  A4D8               	btfss	status,2,c
  1349  00071E  EF93  F003         	goto	u81
  1350  000722  EF95  F003         	goto	u80
  1351  000726                     u81:
  1352  000726  EF8B  F003         	goto	l1148
  1353  00072A                     u80:
  1354  00072A                     __ccov60_end_blk41:
  1355                           	callstack 27
  1356  00072A                     __ccov61_start_blk43:
  1357                           	callstack 27
  1358  00072A                     
  1359                           ;Lib_mias_all/microchip_LCD/openxlcd.c: 87:         WriteCmdXLCD(0b00000100);
  1360  00072A  0E04               	movlw	4
  1361  00072C  EC74  F004         	call	_WriteCmdXLCD
  1362  000730                     __ccov61_end_blk43:
  1363                           	callstack 27
  1364  000730                     __ccov62_start_blk46:
  1365                           	callstack 27
  1366  000730                     l1152:
  1367  000730  EC9F  F004         	call	_BusyXLCD	;wreg free
  1368  000734  0900               	iorlw	0
  1369  000736  A4D8               	btfss	status,2,c
  1370  000738  EFA0  F003         	goto	u91
  1371  00073C  EFA2  F003         	goto	u90
  1372  000740                     u91:
  1373  000740  EF98  F003         	goto	l1152
  1374  000744                     u90:
  1375  000744                     __ccov62_end_blk46:
  1376                           	callstack 27
  1377  000744                     __ccov63_start_blk48:
  1378                           	callstack 27
  1379  000744                     
  1380                           ;Lib_mias_all/microchip_LCD/openxlcd.c: 91:         SetDDRamAddr(0x80);
  1381  000744  0E80               	movlw	128
  1382  000746  ECC5  F004         	call	_SetDDRamAddr
  1383  00074A                     __ccov63_end_blk48:
  1384                           	callstack 27
  1385  00074A                     __ccov64_start_blk51:
  1386                           	callstack 27
  1387  00074A                     l1156:
  1388  00074A  EC9F  F004         	call	_BusyXLCD	;wreg free
  1389  00074E  0900               	iorlw	0
  1390  000750  A4D8               	btfss	status,2,c
  1391  000752  EFAD  F003         	goto	u101
  1392  000756  EFAF  F003         	goto	u100
  1393  00075A                     u101:
  1394  00075A  EFA5  F003         	goto	l1156
  1395  00075E                     u100:
  1396  00075E                     __ccov64_end_blk51:
  1397                           	callstack 27
  1398  00075E                     __ccov65_start_blk53:
  1399                           	callstack 27
  1400  00075E                     
  1401                           ;Lib_mias_all/microchip_LCD/openxlcd.c: 95:         WriteCmdXLCD(0b00001111&0b00001111&0
      +                          b00001111);
  1402  00075E  0E0F               	movlw	15
  1403  000760  EC74  F004         	call	_WriteCmdXLCD
  1404  000764                     __ccov65_end_blk53:
  1405                           	callstack 27
  1406  000764                     __ccov66_start_blk55:
  1407                           	callstack 27
  1408  000764  8E01               	bsf	(__ccovbit55_11/(0+8))^0,__ccovbit55_11& (0+7),c	;volatile
  1409  000766  0012               	return		;funcret
  1410  000768                     __end_of_OpenXLCD:
  1411                           	callstack 0
  1412  0000                     
  1413 ;; *************** function _WriteCmdXLCD *****************
  1414 ;; Defined at:
  1415 ;;		line 13 in file "Lib_mias_all/microchip_LCD/wcmdxlcd.c"
  1416 ;; Parameters:    Size  Location     Type
  1417 ;;  cmd             1    wreg     unsigned char 
  1418 ;; Auto vars:     Size  Location     Type
  1419 ;;  cmd             1    1[COMRAM] unsigned char 
  1420 ;; Return value:  Size  Location     Type
  1421 ;;                  1    wreg      void 
  1422 ;; Registers used:
  1423 ;;		wreg, status,2, status,0, cstack
  1424 ;; Tracked objects:
  1425 ;;		On entry : 0/0
  1426 ;;		On exit  : 0/0
  1427 ;;		Unchanged: 0/0
  1428 ;; Data sizes:     COMRAM   BANK0   BANK1   BANK2   BANK3   BANK4   BANK5
  1429 ;;      Params:         0       0       0       0       0       0       0
  1430 ;;      Locals:         1       0       0       0       0       0       0
  1431 ;;      Temps:          0       0       0       0       0       0       0
  1432 ;;      Totals:         1       0       0       0       0       0       0
  1433 ;;Total ram usage:        1 bytes
  1434 ;; Hardware stack levels used:    1
  1435 ;; Hardware stack levels required when called:    1
  1436 ;; This function calls:
  1437 ;;		_DelayFor18TCY
  1438 ;;		_DelayPORXLCD
  1439 ;; This function is called by:
  1440 ;;		_LCD_inicio
  1441 ;;		_OpenXLCD
  1442 ;;		_main
  1443 ;; This function uses a non-reentrant model
  1444 ;;
  1445                           
  1446                           	psect	text8
  1447  0008E8                     __ptext8:
  1448                           	callstack 0
  1449  0008E8                     _WriteCmdXLCD:
  1450                           	callstack 29
  1451                           
  1452                           ;incstack = 0
  1453                           ;WriteCmdXLCD@cmd stored from wreg
  1454  0008E8  6E16               	movwf	WriteCmdXLCD@cmd^0,c
  1455  0008EA                     
  1456                           ;Lib_mias_all/microchip_LCD/wcmdxlcd.c: 13: void WriteCmdXLCD(unsigned char cmd);Lib_mia
      +                          s_all/microchip_LCD/wcmdxlcd.c: 14: {;Lib_mias_all/microchip_LCD/wcmdxlcd.c: 32:        
      +                           TRISB &= 0xf0;
  1457  0008EA  0EF0               	movlw	240
  1458  0008EC  1693               	andwf	147,f,c	;volatile
  1459                           
  1460                           ;Lib_mias_all/microchip_LCD/wcmdxlcd.c: 33:         PORTB &= 0xf0;
  1461  0008EE  0EF0               	movlw	240
  1462  0008F0  1681               	andwf	129,f,c	;volatile
  1463                           
  1464                           ;Lib_mias_all/microchip_LCD/wcmdxlcd.c: 34:         PORTB |= (cmd>>4)&0x0f;
  1465  0008F2  3816               	swapf	WriteCmdXLCD@cmd^0,w,c
  1466  0008F4  0B0F               	andlw	15
  1467  0008F6  0B0F               	andlw	15
  1468  0008F8  1281               	iorwf	129,f,c	;volatile
  1469  0008FA                     __ccov85_end_blk0:
  1470                           	callstack 29
  1471  0008FA                     __ccov86_start_blk1:
  1472                           	callstack 29
  1473  0008FA                     
  1474                           ;Lib_mias_all/microchip_LCD/wcmdxlcd.c: 36:         LATBbits.LATB5 = 0;
  1475  0008FA  9A8A               	bcf	138,5,c	;volatile
  1476  0008FC                     __ccov86_end_blk1:
  1477                           	callstack 29
  1478  0008FC                     __ccov87_start_blk2:
  1479                           	callstack 29
  1480  0008FC                     
  1481                           ;Lib_mias_all/microchip_LCD/wcmdxlcd.c: 37:         LATCbits.LATC0 = 0;
  1482  0008FC  908B               	bcf	139,0,c	;volatile
  1483  0008FE                     __ccov87_end_blk2:
  1484                           	callstack 29
  1485  0008FE                     __ccov88_start_blk3:
  1486                           	callstack 29
  1487  0008FE                     
  1488                           ;Lib_mias_all/microchip_LCD/wcmdxlcd.c: 38:         DelayFor18TCY();
  1489  0008FE  EC4A  F005         	call	_DelayFor18TCY	;wreg free
  1490  000902                     __ccov88_end_blk3:
  1491                           	callstack 29
  1492  000902                     __ccov89_start_blk4:
  1493                           	callstack 29
  1494  000902                     
  1495                           ;Lib_mias_all/microchip_LCD/wcmdxlcd.c: 39:         LATBbits.LATB6 = 1;
  1496  000902  8C8A               	bsf	138,6,c	;volatile
  1497  000904                     __ccov89_end_blk4:
  1498                           	callstack 29
  1499  000904                     __ccov90_start_blk5:
  1500                           	callstack 29
  1501  000904                     
  1502                           ;Lib_mias_all/microchip_LCD/wcmdxlcd.c: 40:         DelayFor18TCY();
  1503  000904  EC4A  F005         	call	_DelayFor18TCY	;wreg free
  1504  000908                     __ccov90_end_blk5:
  1505                           	callstack 29
  1506  000908                     __ccov91_start_blk6:
  1507                           	callstack 29
  1508  000908                     
  1509                           ;Lib_mias_all/microchip_LCD/wcmdxlcd.c: 41:         LATBbits.LATB6 = 0;
  1510  000908  9C8A               	bcf	138,6,c	;volatile
  1511                           
  1512                           ;Lib_mias_all/microchip_LCD/wcmdxlcd.c: 46:         PORTB &= 0xf0;
  1513  00090A  0EF0               	movlw	240
  1514  00090C  1681               	andwf	129,f,c	;volatile
  1515                           
  1516                           ;Lib_mias_all/microchip_LCD/wcmdxlcd.c: 47:         PORTB |= cmd&0x0f;
  1517  00090E  5016               	movf	WriteCmdXLCD@cmd^0,w,c
  1518  000910  0B0F               	andlw	15
  1519  000912  1281               	iorwf	129,f,c	;volatile
  1520  000914                     __ccov91_end_blk6:
  1521                           	callstack 29
  1522  000914                     __ccov92_start_blk7:
  1523                           	callstack 29
  1524  000914                     
  1525                           ;Lib_mias_all/microchip_LCD/wcmdxlcd.c: 49:         DelayFor18TCY();
  1526  000914  EC4A  F005         	call	_DelayFor18TCY	;wreg free
  1527  000918                     __ccov92_end_blk7:
  1528                           	callstack 29
  1529  000918                     __ccov93_start_blk8:
  1530                           	callstack 29
  1531  000918                     
  1532                           ;Lib_mias_all/microchip_LCD/wcmdxlcd.c: 50:         LATBbits.LATB6 = 1;
  1533  000918  8C8A               	bsf	138,6,c	;volatile
  1534  00091A                     __ccov93_end_blk8:
  1535                           	callstack 29
  1536  00091A                     __ccov94_start_blk9:
  1537                           	callstack 29
  1538  00091A                     
  1539                           ;Lib_mias_all/microchip_LCD/wcmdxlcd.c: 51:         DelayFor18TCY();
  1540  00091A  EC4A  F005         	call	_DelayFor18TCY	;wreg free
  1541  00091E                     __ccov94_end_blk9:
  1542                           	callstack 29
  1543  00091E                     __ccov95_start_blk10:
  1544                           	callstack 29
  1545  00091E                     
  1546                           ;Lib_mias_all/microchip_LCD/wcmdxlcd.c: 52:         LATBbits.LATB6 = 0;
  1547  00091E  9C8A               	bcf	138,6,c	;volatile
  1548                           
  1549                           ;Lib_mias_all/microchip_LCD/wcmdxlcd.c: 56:         TRISB |= 0x0f;
  1550  000920  0E0F               	movlw	15
  1551  000922  1293               	iorwf	147,f,c	;volatile
  1552                           
  1553                           ;Lib_mias_all/microchip_LCD/wcmdxlcd.c: 59:         if (cmd == 0x01){
  1554  000924  0416               	decf	WriteCmdXLCD@cmd^0,w,c
  1555  000926  A4D8               	btfss	status,2,c
  1556  000928  EF98  F004         	goto	u21
  1557  00092C  EF9A  F004         	goto	u20
  1558  000930                     u21:
  1559  000930  EF9D  F004         	goto	l212
  1560  000934                     u20:
  1561  000934                     __ccov95_end_blk10:
  1562                           	callstack 29
  1563  000934                     __ccov96_start_blk11:
  1564                           	callstack 29
  1565  000934  8601               	bsf	(__ccovbit11_15/(0+8))^0,__ccovbit11_15& (0+7),c	;volatile
  1566                           
  1567                           ;Lib_mias_all/microchip_LCD/wcmdxlcd.c: 60:             DelayPORXLCD();
  1568  000936  EC41  F005         	call	_DelayPORXLCD	;wreg free
  1569  00093A                     __ccov96_end_blk11:
  1570                           	callstack 29
  1571  00093A                     __ccov97_start_blk14:
  1572                           	callstack 29
  1573  00093A                     l212:
  1574  00093A  8401               	bsf	(__ccovbit14_16/(0+8))^0,__ccovbit14_16& (0+7),c	;volatile
  1575  00093C  0012               	return		;funcret
  1576  00093E                     __end_of_WriteCmdXLCD:
  1577                           	callstack 0
  1578  0000                     
  1579 ;; *************** function _DelayPORXLCD *****************
  1580 ;; Defined at:
  1581 ;;		line 69 in file "Lib_mias_all/microchip_LCD/delay_xlcd.c"
  1582 ;; Parameters:    Size  Location     Type
  1583 ;;		None
  1584 ;; Auto vars:     Size  Location     Type
  1585 ;;		None
  1586 ;; Return value:  Size  Location     Type
  1587 ;;                  1    wreg      void 
  1588 ;; Registers used:
  1589 ;;		wreg
  1590 ;; Tracked objects:
  1591 ;;		On entry : 0/0
  1592 ;;		On exit  : 0/0
  1593 ;;		Unchanged: 0/0
  1594 ;; Data sizes:     COMRAM   BANK0   BANK1   BANK2   BANK3   BANK4   BANK5
  1595 ;;      Params:         0       0       0       0       0       0       0
  1596 ;;      Locals:         0       0       0       0       0       0       0
  1597 ;;      Temps:          1       0       0       0       0       0       0
  1598 ;;      Totals:         1       0       0       0       0       0       0
  1599 ;;Total ram usage:        1 bytes
  1600 ;; Hardware stack levels used:    1
  1601 ;; This function calls:
  1602 ;;		Nothing
  1603 ;; This function is called by:
  1604 ;;		_WriteCmdXLCD
  1605 ;; This function uses a non-reentrant model
  1606 ;;
  1607                           
  1608                           	psect	text9
  1609  000A82                     __ptext9:
  1610                           	callstack 0
  1611  000A82                     _DelayPORXLCD:
  1612                           	callstack 29
  1613                           
  1614                           ;incstack = 0
  1615  000A82                     
  1616                           ;Lib_mias_all/microchip_LCD/delay_xlcd.c: 70:     _delay((unsigned long)((15)*(4000000/4
      +                          000.0)));
  1617  000A82  0E14               	movlw	20
  1618  000A84  6E15               	movwf	??_DelayPORXLCD^0,c
  1619  000A86  0E7A               	movlw	122
  1620  000A88                     u387:
  1621  000A88  2EE8               	decfsz	wreg,f,c
  1622  000A8A  D7FE               	bra	u387
  1623  000A8C  2E15               	decfsz	??_DelayPORXLCD^0,f,c
  1624  000A8E  D7FC               	bra	u387
  1625  000A90                     __ccov29_end_blk0:
  1626                           	callstack 29
  1627  000A90                     __ccov30_start_blk2:
  1628                           	callstack 29
  1629  000A90  8402               	bsf	(__ccovbit2_8/(0+8))^0,__ccovbit2_8& (0+7),c	;volatile
  1630  000A92  0012               	return		;funcret
  1631  000A94                     __end_of_DelayPORXLCD:
  1632                           	callstack 0
  1633  0000                     
  1634 ;; *************** function _SetDDRamAddr *****************
  1635 ;; Defined at:
  1636 ;;		line 13 in file "Lib_mias_all/microchip_LCD/setddram.c"
  1637 ;; Parameters:    Size  Location     Type
  1638 ;;  DDaddr          1    wreg     unsigned char 
  1639 ;; Auto vars:     Size  Location     Type
  1640 ;;  DDaddr          1    1[COMRAM] unsigned char 
  1641 ;; Return value:  Size  Location     Type
  1642 ;;                  1    wreg      void 
  1643 ;; Registers used:
  1644 ;;		wreg, status,2, status,0, cstack
  1645 ;; Tracked objects:
  1646 ;;		On entry : 0/0
  1647 ;;		On exit  : 0/0
  1648 ;;		Unchanged: 0/0
  1649 ;; Data sizes:     COMRAM   BANK0   BANK1   BANK2   BANK3   BANK4   BANK5
  1650 ;;      Params:         0       0       0       0       0       0       0
  1651 ;;      Locals:         1       0       0       0       0       0       0
  1652 ;;      Temps:          1       0       0       0       0       0       0
  1653 ;;      Totals:         2       0       0       0       0       0       0
  1654 ;;Total ram usage:        2 bytes
  1655 ;; Hardware stack levels used:    1
  1656 ;; Hardware stack levels required when called:    1
  1657 ;; This function calls:
  1658 ;;		_DelayFor18TCY
  1659 ;; This function is called by:
  1660 ;;		_OpenXLCD
  1661 ;;		_main
  1662 ;; This function uses a non-reentrant model
  1663 ;;
  1664                           
  1665                           	psect	text10
  1666  00098A                     __ptext10:
  1667                           	callstack 0
  1668  00098A                     _SetDDRamAddr:
  1669                           	callstack 29
  1670                           
  1671                           ;incstack = 0
  1672                           ;SetDDRamAddr@DDaddr stored from wreg
  1673  00098A  6E16               	movwf	SetDDRamAddr@DDaddr^0,c
  1674  00098C                     
  1675                           ;Lib_mias_all/microchip_LCD/setddram.c: 13: void SetDDRamAddr(unsigned char DDaddr);Lib_
      +                          mias_all/microchip_LCD/setddram.c: 14: {;Lib_mias_all/microchip_LCD/setddram.c: 32:     
      +                              TRISB &= 0xf0;
  1676  00098C  0EF0               	movlw	240
  1677  00098E  1693               	andwf	147,f,c	;volatile
  1678                           
  1679                           ;Lib_mias_all/microchip_LCD/setddram.c: 33:         PORTB &= 0xf0;
  1680  000990  0EF0               	movlw	240
  1681  000992  1681               	andwf	129,f,c	;volatile
  1682                           
  1683                           ;Lib_mias_all/microchip_LCD/setddram.c: 34:         PORTB |= (((DDaddr | 0b10000000)>>4)
      +                           & 0x0f);
  1684  000994  C016  F015         	movff	SetDDRamAddr@DDaddr,??_SetDDRamAddr
  1685  000998  0E80               	movlw	128
  1686  00099A  1215               	iorwf	??_SetDDRamAddr^0,f,c
  1687  00099C  3815               	swapf	??_SetDDRamAddr^0,w,c
  1688  00099E  0B0F               	andlw	15
  1689  0009A0  0B0F               	andlw	15
  1690  0009A2  1281               	iorwf	129,f,c	;volatile
  1691  0009A4                     __ccov73_end_blk0:
  1692                           	callstack 29
  1693  0009A4                     __ccov74_start_blk1:
  1694                           	callstack 29
  1695  0009A4                     
  1696                           ;Lib_mias_all/microchip_LCD/setddram.c: 36:         LATBbits.LATB5 = 0;
  1697  0009A4  9A8A               	bcf	138,5,c	;volatile
  1698  0009A6                     __ccov74_end_blk1:
  1699                           	callstack 29
  1700  0009A6                     __ccov75_start_blk2:
  1701                           	callstack 29
  1702  0009A6                     
  1703                           ;Lib_mias_all/microchip_LCD/setddram.c: 37:         LATCbits.LATC0 = 0;
  1704  0009A6  908B               	bcf	139,0,c	;volatile
  1705  0009A8                     __ccov75_end_blk2:
  1706                           	callstack 29
  1707  0009A8                     __ccov76_start_blk3:
  1708                           	callstack 29
  1709  0009A8                     
  1710                           ;Lib_mias_all/microchip_LCD/setddram.c: 38:         DelayFor18TCY();
  1711  0009A8  EC4A  F005         	call	_DelayFor18TCY	;wreg free
  1712  0009AC                     __ccov76_end_blk3:
  1713                           	callstack 29
  1714  0009AC                     __ccov77_start_blk4:
  1715                           	callstack 29
  1716  0009AC                     
  1717                           ;Lib_mias_all/microchip_LCD/setddram.c: 39:         LATBbits.LATB6 = 1;
  1718  0009AC  8C8A               	bsf	138,6,c	;volatile
  1719  0009AE                     __ccov77_end_blk4:
  1720                           	callstack 29
  1721  0009AE                     __ccov78_start_blk5:
  1722                           	callstack 29
  1723  0009AE                     
  1724                           ;Lib_mias_all/microchip_LCD/setddram.c: 40:         DelayFor18TCY();
  1725  0009AE  EC4A  F005         	call	_DelayFor18TCY	;wreg free
  1726  0009B2                     __ccov78_end_blk5:
  1727                           	callstack 29
  1728  0009B2                     __ccov79_start_blk6:
  1729                           	callstack 29
  1730  0009B2                     
  1731                           ;Lib_mias_all/microchip_LCD/setddram.c: 41:         LATBbits.LATB6 = 0;
  1732  0009B2  9C8A               	bcf	138,6,c	;volatile
  1733                           
  1734                           ;Lib_mias_all/microchip_LCD/setddram.c: 46:         PORTB &= 0xf0;
  1735  0009B4  0EF0               	movlw	240
  1736  0009B6  1681               	andwf	129,f,c	;volatile
  1737                           
  1738                           ;Lib_mias_all/microchip_LCD/setddram.c: 47:         PORTB |= (DDaddr&0x0f);
  1739  0009B8  5016               	movf	SetDDRamAddr@DDaddr^0,w,c
  1740  0009BA  0B0F               	andlw	15
  1741  0009BC  1281               	iorwf	129,f,c	;volatile
  1742  0009BE                     __ccov79_end_blk6:
  1743                           	callstack 29
  1744  0009BE                     __ccov80_start_blk7:
  1745                           	callstack 29
  1746  0009BE                     
  1747                           ;Lib_mias_all/microchip_LCD/setddram.c: 49:         DelayFor18TCY();
  1748  0009BE  EC4A  F005         	call	_DelayFor18TCY	;wreg free
  1749  0009C2                     __ccov80_end_blk7:
  1750                           	callstack 29
  1751  0009C2                     __ccov81_start_blk8:
  1752                           	callstack 29
  1753  0009C2                     
  1754                           ;Lib_mias_all/microchip_LCD/setddram.c: 50:         LATBbits.LATB6 = 1;
  1755  0009C2  8C8A               	bsf	138,6,c	;volatile
  1756  0009C4                     __ccov81_end_blk8:
  1757                           	callstack 29
  1758  0009C4                     __ccov82_start_blk9:
  1759                           	callstack 29
  1760  0009C4                     
  1761                           ;Lib_mias_all/microchip_LCD/setddram.c: 51:         DelayFor18TCY();
  1762  0009C4  EC4A  F005         	call	_DelayFor18TCY	;wreg free
  1763  0009C8                     __ccov82_end_blk9:
  1764                           	callstack 29
  1765  0009C8                     __ccov83_start_blk10:
  1766                           	callstack 29
  1767  0009C8                     
  1768                           ;Lib_mias_all/microchip_LCD/setddram.c: 52:         LATBbits.LATB6 = 0;
  1769  0009C8  9C8A               	bcf	138,6,c	;volatile
  1770                           
  1771                           ;Lib_mias_all/microchip_LCD/setddram.c: 56:         TRISB |= 0x0f;
  1772  0009CA  0E0F               	movlw	15
  1773  0009CC  1293               	iorwf	147,f,c	;volatile
  1774  0009CE                     __ccov83_end_blk10:
  1775                           	callstack 29
  1776  0009CE                     __ccov84_start_blk12:
  1777                           	callstack 29
  1778  0009CE  8801               	bsf	(__ccovbit12_14/(0+8))^0,__ccovbit12_14& (0+7),c	;volatile
  1779  0009D0  0012               	return		;funcret
  1780  0009D2                     __end_of_SetDDRamAddr:
  1781                           	callstack 0
  1782  0000                     
  1783 ;; *************** function _BusyXLCD *****************
  1784 ;; Defined at:
  1785 ;;		line 11 in file "Lib_mias_all/microchip_LCD/busyxlcd.c"
  1786 ;; Parameters:    Size  Location     Type
  1787 ;;		None
  1788 ;; Auto vars:     Size  Location     Type
  1789 ;;		None
  1790 ;; Return value:  Size  Location     Type
  1791 ;;                  1    wreg      unsigned char 
  1792 ;; Registers used:
  1793 ;;		wreg, cstack
  1794 ;; Tracked objects:
  1795 ;;		On entry : 0/0
  1796 ;;		On exit  : 0/0
  1797 ;;		Unchanged: 0/0
  1798 ;; Data sizes:     COMRAM   BANK0   BANK1   BANK2   BANK3   BANK4   BANK5
  1799 ;;      Params:         0       0       0       0       0       0       0
  1800 ;;      Locals:         0       0       0       0       0       0       0
  1801 ;;      Temps:          0       0       0       0       0       0       0
  1802 ;;      Totals:         0       0       0       0       0       0       0
  1803 ;;Total ram usage:        0 bytes
  1804 ;; Hardware stack levels used:    1
  1805 ;; Hardware stack levels required when called:    1
  1806 ;; This function calls:
  1807 ;;		_DelayFor18TCY
  1808 ;; This function is called by:
  1809 ;;		_OpenXLCD
  1810 ;;		_putrsXLCD
  1811 ;;		_main
  1812 ;; This function uses a non-reentrant model
  1813 ;;
  1814                           
  1815                           	psect	text11
  1816  00093E                     __ptext11:
  1817                           	callstack 0
  1818  00093E                     _BusyXLCD:
  1819                           	callstack 28
  1820                           
  1821                           ;incstack = 0
  1822  00093E                     
  1823                           ;Lib_mias_all/microchip_LCD/busyxlcd.c: 13:         LATBbits.LATB5 = 1;
  1824  00093E  8A8A               	bsf	138,5,c	;volatile
  1825                           
  1826                           ;Lib_mias_all/microchip_LCD/busyxlcd.c: 14:         LATCbits.LATC0 = 0;
  1827  000940  908B               	bcf	139,0,c	;volatile
  1828  000942                     __ccov10_end_blk0:
  1829                           	callstack 28
  1830  000942                     __ccov11_start_blk1:
  1831                           	callstack 28
  1832  000942                     
  1833                           ;Lib_mias_all/microchip_LCD/busyxlcd.c: 15:         DelayFor18TCY();
  1834  000942  EC4A  F005         	call	_DelayFor18TCY	;wreg free
  1835  000946                     __ccov11_end_blk1:
  1836                           	callstack 28
  1837  000946                     __ccov12_start_blk2:
  1838                           	callstack 28
  1839  000946                     
  1840                           ;Lib_mias_all/microchip_LCD/busyxlcd.c: 16:         LATBbits.LATB6 = 1;
  1841  000946  8C8A               	bsf	138,6,c	;volatile
  1842                           
  1843                           ;Lib_mias_all/microchip_LCD/busyxlcd.c: 17:         DelayFor18TCY();
  1844  000948  EC4A  F005         	call	_DelayFor18TCY	;wreg free
  1845  00094C                     __ccov12_end_blk2:
  1846                           	callstack 28
  1847  00094C                     __ccov13_start_blk3:
  1848                           	callstack 28
  1849  00094C                     
  1850                           ;Lib_mias_all/microchip_LCD/busyxlcd.c: 35:         if(PORTB&0x08)
  1851  00094C  A681               	btfss	129,3,c	;volatile
  1852  00094E  EFAB  F004         	goto	u11
  1853  000952  EFAD  F004         	goto	u10
  1854  000956                     u11:
  1855  000956  EFB9  F004         	goto	l53
  1856  00095A                     u10:
  1857  00095A                     __ccov13_end_blk3:
  1858                           	callstack 28
  1859  00095A                     __ccov14_start_blk4:
  1860                           	callstack 28
  1861  00095A                     
  1862                           ;Lib_mias_all/microchip_LCD/busyxlcd.c: 37:         {;Lib_mias_all/microchip_LCD/busyxlc
      +                          d.c: 38:                 LATBbits.LATB6 = 0;
  1863  00095A  9C8A               	bcf	138,6,c	;volatile
  1864  00095C                     __ccov14_end_blk4:
  1865                           	callstack 28
  1866  00095C                     __ccov15_start_blk5:
  1867                           	callstack 28
  1868  00095C                     
  1869                           ;Lib_mias_all/microchip_LCD/busyxlcd.c: 39:                 DelayFor18TCY();
  1870  00095C  EC4A  F005         	call	_DelayFor18TCY	;wreg free
  1871  000960                     __ccov15_end_blk5:
  1872                           	callstack 28
  1873  000960                     __ccov16_start_blk6:
  1874                           	callstack 28
  1875  000960                     
  1876                           ;Lib_mias_all/microchip_LCD/busyxlcd.c: 40:                 LATBbits.LATB6 = 1;
  1877  000960  8C8A               	bsf	138,6,c	;volatile
  1878                           
  1879                           ;Lib_mias_all/microchip_LCD/busyxlcd.c: 41:                 DelayFor18TCY();
  1880  000962  EC4A  F005         	call	_DelayFor18TCY	;wreg free
  1881  000966                     __ccov16_end_blk6:
  1882                           	callstack 28
  1883  000966                     __ccov17_start_blk7:
  1884                           	callstack 28
  1885  000966                     
  1886                           ;Lib_mias_all/microchip_LCD/busyxlcd.c: 42:                 LATBbits.LATB6 = 0;
  1887  000966  9C8A               	bcf	138,6,c	;volatile
  1888  000968                     __ccov17_end_blk7:
  1889                           	callstack 28
  1890  000968                     __ccov18_start_blk8:
  1891                           	callstack 28
  1892  000968                     
  1893                           ;Lib_mias_all/microchip_LCD/busyxlcd.c: 43:                 LATBbits.LATB5 = 0;
  1894  000968  9A8A               	bcf	138,5,c	;volatile
  1895  00096A                     __ccov18_end_blk8:
  1896                           	callstack 28
  1897  00096A                     __ccov19_start_blk9:
  1898                           	callstack 28
  1899  00096A  8C02               	bsf	(__ccovbit9_4/(0+8))^0,__ccovbit9_4& (0+7),c	;volatile
  1900                           
  1901                           ;Lib_mias_all/microchip_LCD/busyxlcd.c: 44:                 return 1;
  1902  00096C  0E01               	movlw	1
  1903  00096E  EFC3  F004         	goto	l54
  1904  000972                     __ccov19_end_blk9:
  1905                           	callstack 28
  1906  000972                     __ccov20_start_blk12:
  1907                           	callstack 28
  1908  000972                     l53:
  1909                           
  1910                           ;Lib_mias_all/microchip_LCD/busyxlcd.c: 47:         {;Lib_mias_all/microchip_LCD/busyxlc
      +                          d.c: 48:                 LATBbits.LATB6 = 0;
  1911  000972  9C8A               	bcf	138,6,c	;volatile
  1912  000974                     __ccov20_end_blk12:
  1913                           	callstack 28
  1914  000974                     __ccov21_start_blk13:
  1915                           	callstack 28
  1916  000974                     
  1917                           ;Lib_mias_all/microchip_LCD/busyxlcd.c: 49:                 DelayFor18TCY();
  1918  000974  EC4A  F005         	call	_DelayFor18TCY	;wreg free
  1919  000978                     __ccov21_end_blk13:
  1920                           	callstack 28
  1921  000978                     __ccov22_start_blk14:
  1922                           	callstack 28
  1923  000978                     
  1924                           ;Lib_mias_all/microchip_LCD/busyxlcd.c: 50:                 LATBbits.LATB6 = 1;
  1925  000978  8C8A               	bsf	138,6,c	;volatile
  1926                           
  1927                           ;Lib_mias_all/microchip_LCD/busyxlcd.c: 51:                 DelayFor18TCY();
  1928  00097A  EC4A  F005         	call	_DelayFor18TCY	;wreg free
  1929  00097E                     __ccov22_end_blk14:
  1930                           	callstack 28
  1931  00097E                     __ccov23_start_blk15:
  1932                           	callstack 28
  1933  00097E                     
  1934                           ;Lib_mias_all/microchip_LCD/busyxlcd.c: 52:                 LATBbits.LATB6 = 0;
  1935  00097E  9C8A               	bcf	138,6,c	;volatile
  1936  000980                     __ccov23_end_blk15:
  1937                           	callstack 28
  1938  000980                     __ccov24_start_blk16:
  1939                           	callstack 28
  1940  000980                     
  1941                           ;Lib_mias_all/microchip_LCD/busyxlcd.c: 53:                 LATBbits.LATB5 = 0;
  1942  000980  9A8A               	bcf	138,5,c	;volatile
  1943  000982                     __ccov24_end_blk16:
  1944                           	callstack 28
  1945  000982                     __ccov25_start_blk17:
  1946                           	callstack 28
  1947  000982  8A02               	bsf	(__ccovbit17_5/(0+8))^0,__ccovbit17_5& (0+7),c	;volatile
  1948                           
  1949                           ;Lib_mias_all/microchip_LCD/busyxlcd.c: 54:                 return 0;
  1950  000984  0E00               	movlw	0
  1951  000986                     __ccov25_end_blk17:
  1952                           	callstack 28
  1953  000986                     __ccov26_start_blk20:
  1954                           	callstack 28
  1955  000986                     l54:
  1956  000986  8802               	bsf	(__ccovbit20_6/(0+8))^0,__ccovbit20_6& (0+7),c	;volatile
  1957  000988  0012               	return		;funcret
  1958  00098A                     __end_of_BusyXLCD:
  1959                           	callstack 0
  1960  0000                     
  1961 ;; *************** function _DelayFor18TCY *****************
  1962 ;; Defined at:
  1963 ;;		line 62 in file "Lib_mias_all/microchip_LCD/delay_xlcd.c"
  1964 ;; Parameters:    Size  Location     Type
  1965 ;;		None
  1966 ;; Auto vars:     Size  Location     Type
  1967 ;;		None
  1968 ;; Return value:  Size  Location     Type
  1969 ;;                  1    wreg      void 
  1970 ;; Registers used:
  1971 ;;		None
  1972 ;; Tracked objects:
  1973 ;;		On entry : 0/0
  1974 ;;		On exit  : 0/0
  1975 ;;		Unchanged: 0/0
  1976 ;; Data sizes:     COMRAM   BANK0   BANK1   BANK2   BANK3   BANK4   BANK5
  1977 ;;      Params:         0       0       0       0       0       0       0
  1978 ;;      Locals:         0       0       0       0       0       0       0
  1979 ;;      Temps:          0       0       0       0       0       0       0
  1980 ;;      Totals:         0       0       0       0       0       0       0
  1981 ;;Total ram usage:        0 bytes
  1982 ;; Hardware stack levels used:    1
  1983 ;; This function calls:
  1984 ;;		Nothing
  1985 ;; This function is called by:
  1986 ;;		_BusyXLCD
  1987 ;;		_SetDDRamAddr
  1988 ;;		_WriteCmdXLCD
  1989 ;;		_WriteDataXLCD
  1990 ;; This function uses a non-reentrant model
  1991 ;;
  1992                           
  1993                           	psect	text12
  1994  000A94                     __ptext12:
  1995                           	callstack 0
  1996  000A94                     _DelayFor18TCY:
  1997                           	callstack 28
  1998                           
  1999                           ;incstack = 0
  2000  000A94                     
  2001                           ;Lib_mias_all/microchip_LCD/delay_xlcd.c: 64:     _delay((unsigned long)((5)*(4000000/40
      +                          00000.0)));
  2002  000A94  F000 F000          	nop2		;2 cycle nop
  2003  000A98  F000 F000          	nop2		;2 cycle nop
  2004  000A9C  F000               	nop	
  2005  000A9E                     __ccov27_end_blk0:
  2006                           	callstack 28
  2007  000A9E                     __ccov28_start_blk1:
  2008                           	callstack 28
  2009  000A9E  8602               	bsf	(__ccovbit1_7/(0+8))^0,__ccovbit1_7& (0+7),c	;volatile
  2010  000AA0  0012               	return		;funcret
  2011  000AA2                     __end_of_DelayFor18TCY:
  2012                           	callstack 0
  2013  0000                     
  2014 ;; *************** function _DelayXLCD *****************
  2015 ;; Defined at:
  2016 ;;		line 75 in file "Lib_mias_all/microchip_LCD/delay_xlcd.c"
  2017 ;; Parameters:    Size  Location     Type
  2018 ;;		None
  2019 ;; Auto vars:     Size  Location     Type
  2020 ;;		None
  2021 ;; Return value:  Size  Location     Type
  2022 ;;                  1    wreg      void 
  2023 ;; Registers used:
  2024 ;;		wreg
  2025 ;; Tracked objects:
  2026 ;;		On entry : 0/0
  2027 ;;		On exit  : 0/0
  2028 ;;		Unchanged: 0/0
  2029 ;; Data sizes:     COMRAM   BANK0   BANK1   BANK2   BANK3   BANK4   BANK5
  2030 ;;      Params:         0       0       0       0       0       0       0
  2031 ;;      Locals:         0       0       0       0       0       0       0
  2032 ;;      Temps:          1       0       0       0       0       0       0
  2033 ;;      Totals:         1       0       0       0       0       0       0
  2034 ;;Total ram usage:        1 bytes
  2035 ;; Hardware stack levels used:    1
  2036 ;; This function calls:
  2037 ;;		Nothing
  2038 ;; This function is called by:
  2039 ;;		_LCD_inicio
  2040 ;; This function uses a non-reentrant model
  2041 ;;
  2042                           
  2043                           	psect	text13
  2044  000A6E                     __ptext13:
  2045                           	callstack 0
  2046  000A6E                     _DelayXLCD:
  2047                           	callstack 29
  2048                           
  2049                           ;incstack = 0
  2050  000A6E                     
  2051                           ;Lib_mias_all/microchip_LCD/delay_xlcd.c: 76:     _delay((unsigned long)((5)*(4000000/40
      +                          00.0)));
  2052  000A6E  0E07               	movlw	7
  2053  000A70  6E15               	movwf	??_DelayXLCD^0,c
  2054  000A72  0E7D               	movlw	125
  2055  000A74                     u397:
  2056  000A74  2EE8               	decfsz	wreg,f,c
  2057  000A76  D7FE               	bra	u397
  2058  000A78  2E15               	decfsz	??_DelayXLCD^0,f,c
  2059  000A7A  D7FC               	bra	u397
  2060  000A7C  F000               	nop	
  2061  000A7E                     __ccov31_end_blk0:
  2062                           	callstack 29
  2063  000A7E                     __ccov32_start_blk2:
  2064                           	callstack 29
  2065  000A7E  8202               	bsf	(__ccovbit2_9/(0+8))^0,__ccovbit2_9& (0+7),c	;volatile
  2066  000A80  0012               	return		;funcret
  2067  000A82                     __end_of_DelayXLCD:
  2068                           	callstack 0
  2069  0000                     
  2070                           ;
  2071                           ; Code-coverage Info Header
  2072                           ;
  2073                           
  2074                           	psect	codecov_info_hdr
  2075  000000                     __pcodecov_info_hdr:
  2076                           	callstack 0
  2077  000000  10                 	db	16	; SIZE
  2078  000001  00000001           	ddw	1	; VERSION
  2079  000005  01                 	db	1	; POINTSIZE
  2080  000006  08                 	db	8	; UNITSIZE
  2081  000007  01                 	db	1	; FLAGS=SET
  2082  000008  00000000           	ddw	0	; Reserved
  2083  00000C  00000000           	ddw	0	; Reserved
  2084                           
  2085                           ;
  2086                           ; Code-coverage Info
  2087                           ;
  2088                           
  2089                           	psect	codecov_info
  2090  000000                     __pcodecov_info:
  2091                           	callstack 0
  2092                           
  2093                           ; Function: SYSTEM_Initialize, coverage: 1,0
  2094  000000  00000000           	ddw	0	; CC_ADDR_SPACE=Data
  2095  000004  00000003           	ddw	__ccovbit1_1/(0+8)	; CC_ADDR
  2096  000008  00000001           	ddw	1	; NUM_POINTS
  2097  00000C  00000001           	ddw	__ccovbit1_1& (0+7)	; OFFSET
  2098  000010  00000000           	ddw	0	; Reserved
  2099  000014  FFFFFFFF           	ddw	4294967295	; RANGE_SPACE=restricted
  2100  000018  00000002           	ddw	2	; NUM_RANGES
  2101  00001C  00000AAA           	ddw	__ccov2_start_blk1	; block 1 START_ADDR
  2102  000020  00000AAE           	ddw	__end_of_SYSTEM_Initialize	; block 1 END_ADDR
  2103  000024  00000AA2           	ddw	_SYSTEM_Initialize	; block 0 START_ADDR
  2104  000028  00000AAA           	ddw	__ccov1_end_blk0	; block 0 END_ADDR
  2105                           
  2106                           ; Function: OSCILLATOR_Initialize, coverage: 1,0
  2107  00002C  00000000           	ddw	0	; CC_ADDR_SPACE=Data
  2108  000030  00000003           	ddw	__ccovbit1_2/(0+8)	; CC_ADDR
  2109  000034  00000001           	ddw	1	; NUM_POINTS
  2110  000038  00000000           	ddw	__ccovbit1_2& (0+7)	; OFFSET
  2111  00003C  00000000           	ddw	0	; Reserved
  2112  000040  FFFFFFFF           	ddw	4294967295	; RANGE_SPACE=restricted
  2113  000044  00000002           	ddw	2	; NUM_RANGES
  2114  000048  00000AB6           	ddw	__ccov4_start_blk1	; block 1 START_ADDR
  2115  00004C  00000ABA           	ddw	__end_of_OSCILLATOR_Initialize	; block 1 END_ADDR
  2116  000050  00000AAE           	ddw	_OSCILLATOR_Initialize	; block 0 START_ADDR
  2117  000054  00000AB6           	ddw	__ccov3_end_blk0	; block 0 END_ADDR
  2118                           
  2119                           ; Function: PIN_MANAGER_Initialize, coverage: 4,3,2,1,0
  2120  000058  00000000           	ddw	0	; CC_ADDR_SPACE=Data
  2121  00005C  00000002           	ddw	__ccovbit4_3/(0+8)	; CC_ADDR
  2122  000060  00000001           	ddw	1	; NUM_POINTS
  2123  000064  00000007           	ddw	__ccovbit4_3& (0+7)	; OFFSET
  2124  000068  00000000           	ddw	0	; Reserved
  2125  00006C  FFFFFFFF           	ddw	4294967295	; RANGE_SPACE=restricted
  2126  000070  00000005           	ddw	5	; NUM_RANGES
  2127  000074  00000A34           	ddw	__ccov9_start_blk4	; block 4 START_ADDR
  2128  000078  00000A38           	ddw	__end_of_PIN_MANAGER_Initialize	; block 4 END_ADDR
  2129  00007C  00000A32           	ddw	__ccov8_start_blk3	; block 3 START_ADDR
  2130  000080  00000A34           	ddw	__ccov8_end_blk3	; block 3 END_ADDR
  2131  000084  00000A24           	ddw	__ccov7_start_blk2	; block 2 START_ADDR
  2132  000088  00000A32           	ddw	__ccov7_end_blk2	; block 2 END_ADDR
  2133  00008C  00000A22           	ddw	__ccov6_start_blk1	; block 1 START_ADDR
  2134  000090  00000A24           	ddw	__ccov6_end_blk1	; block 1 END_ADDR
  2135  000094  00000A12           	ddw	_PIN_MANAGER_Initialize	; block 0 START_ADDR
  2136  000098  00000A22           	ddw	__ccov5_end_blk0	; block 0 END_ADDR
  2137                           
  2138                           ; Function: BusyXLCD, coverage: 9,8,7,6,5,4,3,2,1,0
  2139  00009C  00000000           	ddw	0	; CC_ADDR_SPACE=Data
  2140  0000A0  00000002           	ddw	__ccovbit9_4/(0+8)	; CC_ADDR
  2141  0000A4  00000001           	ddw	1	; NUM_POINTS
  2142  0000A8  00000006           	ddw	__ccovbit9_4& (0+7)	; OFFSET
  2143  0000AC  00000000           	ddw	0	; Reserved
  2144  0000B0  FFFFFFFF           	ddw	4294967295	; RANGE_SPACE=restricted
  2145  0000B4  0000000A           	ddw	10	; NUM_RANGES
  2146  0000B8  0000096A           	ddw	__ccov19_start_blk9	; block 9 START_ADDR
  2147  0000BC  00000972           	ddw	__ccov19_end_blk9	; block 9 END_ADDR
  2148  0000C0  00000968           	ddw	__ccov18_start_blk8	; block 8 START_ADDR
  2149  0000C4  0000096A           	ddw	__ccov18_end_blk8	; block 8 END_ADDR
  2150  0000C8  00000966           	ddw	__ccov17_start_blk7	; block 7 START_ADDR
  2151  0000CC  00000968           	ddw	__ccov17_end_blk7	; block 7 END_ADDR
  2152  0000D0  00000960           	ddw	__ccov16_start_blk6	; block 6 START_ADDR
  2153  0000D4  00000966           	ddw	__ccov16_end_blk6	; block 6 END_ADDR
  2154  0000D8  0000095C           	ddw	__ccov15_start_blk5	; block 5 START_ADDR
  2155  0000DC  00000960           	ddw	__ccov15_end_blk5	; block 5 END_ADDR
  2156  0000E0  0000095A           	ddw	__ccov14_start_blk4	; block 4 START_ADDR
  2157  0000E4  0000095C           	ddw	__ccov14_end_blk4	; block 4 END_ADDR
  2158  0000E8  0000094C           	ddw	__ccov13_start_blk3	; block 3 START_ADDR
  2159  0000EC  0000095A           	ddw	__ccov13_end_blk3	; block 3 END_ADDR
  2160  0000F0  00000946           	ddw	__ccov12_start_blk2	; block 2 START_ADDR
  2161  0000F4  0000094C           	ddw	__ccov12_end_blk2	; block 2 END_ADDR
  2162  0000F8  00000942           	ddw	__ccov11_start_blk1	; block 1 START_ADDR
  2163  0000FC  00000946           	ddw	__ccov11_end_blk1	; block 1 END_ADDR
  2164  000100  0000093E           	ddw	_BusyXLCD	; block 0 START_ADDR
  2165  000104  00000942           	ddw	__ccov10_end_blk0	; block 0 END_ADDR
  2166                           
  2167                           ; Function: BusyXLCD, coverage: 17,16,15,14,13,12,3,2,1,0
  2168  000108  00000000           	ddw	0	; CC_ADDR_SPACE=Data
  2169  00010C  00000002           	ddw	__ccovbit17_5/(0+8)	; CC_ADDR
  2170  000110  00000001           	ddw	1	; NUM_POINTS
  2171  000114  00000005           	ddw	__ccovbit17_5& (0+7)	; OFFSET
  2172  000118  00000000           	ddw	0	; Reserved
  2173  00011C  FFFFFFFF           	ddw	4294967295	; RANGE_SPACE=restricted
  2174  000120  0000000A           	ddw	10	; NUM_RANGES
  2175  000124  00000982           	ddw	__ccov25_start_blk17	; block 17 START_ADDR
  2176  000128  00000986           	ddw	__ccov25_end_blk17	; block 17 END_ADDR
  2177  00012C  00000980           	ddw	__ccov24_start_blk16	; block 16 START_ADDR
  2178  000130  00000982           	ddw	__ccov24_end_blk16	; block 16 END_ADDR
  2179  000134  0000097E           	ddw	__ccov23_start_blk15	; block 15 START_ADDR
  2180  000138  00000980           	ddw	__ccov23_end_blk15	; block 15 END_ADDR
  2181  00013C  00000978           	ddw	__ccov22_start_blk14	; block 14 START_ADDR
  2182  000140  0000097E           	ddw	__ccov22_end_blk14	; block 14 END_ADDR
  2183  000144  00000974           	ddw	__ccov21_start_blk13	; block 13 START_ADDR
  2184  000148  00000978           	ddw	__ccov21_end_blk13	; block 13 END_ADDR
  2185  00014C  00000972           	ddw	__ccov20_start_blk12	; block 12 START_ADDR
  2186  000150  00000974           	ddw	__ccov20_end_blk12	; block 12 END_ADDR
  2187  000154  0000094C           	ddw	__ccov13_start_blk3	; block 3 START_ADDR
  2188  000158  0000095A           	ddw	__ccov13_end_blk3	; block 3 END_ADDR
  2189  00015C  00000946           	ddw	__ccov12_start_blk2	; block 2 START_ADDR
  2190  000160  0000094C           	ddw	__ccov12_end_blk2	; block 2 END_ADDR
  2191  000164  00000942           	ddw	__ccov11_start_blk1	; block 1 START_ADDR
  2192  000168  00000946           	ddw	__ccov11_end_blk1	; block 1 END_ADDR
  2193  00016C  0000093E           	ddw	_BusyXLCD	; block 0 START_ADDR
  2194  000170  00000942           	ddw	__ccov10_end_blk0	; block 0 END_ADDR
  2195                           
  2196                           ; Function: BusyXLCD, coverage: 20,3,2,1,0
  2197  000174  00000000           	ddw	0	; CC_ADDR_SPACE=Data
  2198  000178  00000002           	ddw	__ccovbit20_6/(0+8)	; CC_ADDR
  2199  00017C  00000001           	ddw	1	; NUM_POINTS
  2200  000180  00000004           	ddw	__ccovbit20_6& (0+7)	; OFFSET
  2201  000184  00000000           	ddw	0	; Reserved
  2202  000188  FFFFFFFF           	ddw	4294967295	; RANGE_SPACE=restricted
  2203  00018C  00000005           	ddw	5	; NUM_RANGES
  2204  000190  00000986           	ddw	__ccov26_start_blk20	; block 20 START_ADDR
  2205  000194  0000098A           	ddw	__end_of_BusyXLCD	; block 20 END_ADDR
  2206  000198  0000094C           	ddw	__ccov13_start_blk3	; block 3 START_ADDR
  2207  00019C  0000095A           	ddw	__ccov13_end_blk3	; block 3 END_ADDR
  2208  0001A0  00000946           	ddw	__ccov12_start_blk2	; block 2 START_ADDR
  2209  0001A4  0000094C           	ddw	__ccov12_end_blk2	; block 2 END_ADDR
  2210  0001A8  00000942           	ddw	__ccov11_start_blk1	; block 1 START_ADDR
  2211  0001AC  00000946           	ddw	__ccov11_end_blk1	; block 1 END_ADDR
  2212  0001B0  0000093E           	ddw	_BusyXLCD	; block 0 START_ADDR
  2213  0001B4  00000942           	ddw	__ccov10_end_blk0	; block 0 END_ADDR
  2214                           
  2215                           ; Function: DelayFor18TCY, coverage: 1,0
  2216  0001B8  00000000           	ddw	0	; CC_ADDR_SPACE=Data
  2217  0001BC  00000002           	ddw	__ccovbit1_7/(0+8)	; CC_ADDR
  2218  0001C0  00000001           	ddw	1	; NUM_POINTS
  2219  0001C4  00000003           	ddw	__ccovbit1_7& (0+7)	; OFFSET
  2220  0001C8  00000000           	ddw	0	; Reserved
  2221  0001CC  FFFFFFFF           	ddw	4294967295	; RANGE_SPACE=restricted
  2222  0001D0  00000002           	ddw	2	; NUM_RANGES
  2223  0001D4  00000A9E           	ddw	__ccov28_start_blk1	; block 1 START_ADDR
  2224  0001D8  00000AA2           	ddw	__end_of_DelayFor18TCY	; block 1 END_ADDR
  2225  0001DC  00000A94           	ddw	_DelayFor18TCY	; block 0 START_ADDR
  2226  0001E0  00000A9E           	ddw	__ccov27_end_blk0	; block 0 END_ADDR
  2227                           
  2228                           ; Function: DelayPORXLCD, coverage: 2,0
  2229  0001E4  00000000           	ddw	0	; CC_ADDR_SPACE=Data
  2230  0001E8  00000002           	ddw	__ccovbit2_8/(0+8)	; CC_ADDR
  2231  0001EC  00000001           	ddw	1	; NUM_POINTS
  2232  0001F0  00000002           	ddw	__ccovbit2_8& (0+7)	; OFFSET
  2233  0001F4  00000000           	ddw	0	; Reserved
  2234  0001F8  FFFFFFFF           	ddw	4294967295	; RANGE_SPACE=restricted
  2235  0001FC  00000002           	ddw	2	; NUM_RANGES
  2236  000200  00000A90           	ddw	__ccov30_start_blk2	; block 2 START_ADDR
  2237  000204  00000A94           	ddw	__end_of_DelayPORXLCD	; block 2 END_ADDR
  2238  000208  00000A82           	ddw	_DelayPORXLCD	; block 0 START_ADDR
  2239  00020C  00000A90           	ddw	__ccov29_end_blk0	; block 0 END_ADDR
  2240                           
  2241                           ; Function: DelayXLCD, coverage: 2,0
  2242  000210  00000000           	ddw	0	; CC_ADDR_SPACE=Data
  2243  000214  00000002           	ddw	__ccovbit2_9/(0+8)	; CC_ADDR
  2244  000218  00000001           	ddw	1	; NUM_POINTS
  2245  00021C  00000001           	ddw	__ccovbit2_9& (0+7)	; OFFSET
  2246  000220  00000000           	ddw	0	; Reserved
  2247  000224  FFFFFFFF           	ddw	4294967295	; RANGE_SPACE=restricted
  2248  000228  00000002           	ddw	2	; NUM_RANGES
  2249  00022C  00000A7E           	ddw	__ccov32_start_blk2	; block 2 START_ADDR
  2250  000230  00000A82           	ddw	__end_of_DelayXLCD	; block 2 END_ADDR
  2251  000234  00000A6E           	ddw	_DelayXLCD	; block 0 START_ADDR
  2252  000238  00000A7E           	ddw	__ccov31_end_blk0	; block 0 END_ADDR
  2253                           
  2254                           ; Function: LCD_inicio, coverage: 2,1,0
  2255  00023C  00000000           	ddw	0	; CC_ADDR_SPACE=Data
  2256  000240  00000002           	ddw	__ccovbit2_10/(0+8)	; CC_ADDR
  2257  000244  00000001           	ddw	1	; NUM_POINTS
  2258  000248  00000000           	ddw	__ccovbit2_10& (0+7)	; OFFSET
  2259  00024C  00000000           	ddw	0	; Reserved
  2260  000250  FFFFFFFF           	ddw	4294967295	; RANGE_SPACE=restricted
  2261  000254  00000003           	ddw	3	; NUM_RANGES
  2262  000258  00000A6A           	ddw	__ccov35_start_blk2	; block 2 START_ADDR
  2263  00025C  00000A6E           	ddw	__end_of_LCD_inicio	; block 2 END_ADDR
  2264  000260  00000A66           	ddw	__ccov34_start_blk1	; block 1 START_ADDR
  2265  000264  00000A6A           	ddw	__ccov34_end_blk1	; block 1 END_ADDR
  2266  000268  00000A54           	ddw	_LCD_inicio	; block 0 START_ADDR
  2267  00026C  00000A66           	ddw	__ccov33_end_blk0	; block 0 END_ADDR
  2268                           
  2269                           ; Function: OpenXLCD, coverage: 55,53,51,48,46,43,41,38,36,33,31,28,26,23,21,18,16,13,12
      +                          ,11,10,9,8,7,6,5,4,3,2,1,0
  2270  000270  00000000           	ddw	0	; CC_ADDR_SPACE=Data
  2271  000274  00000001           	ddw	__ccovbit55_11/(0+8)	; CC_ADDR
  2272  000278  00000001           	ddw	1	; NUM_POINTS
  2273  00027C  00000007           	ddw	__ccovbit55_11& (0+7)	; OFFSET
  2274  000280  00000000           	ddw	0	; Reserved
  2275  000284  FFFFFFFF           	ddw	4294967295	; RANGE_SPACE=restricted
  2276  000288  0000001F           	ddw	31	; NUM_RANGES
  2277  00028C  00000764           	ddw	__ccov66_start_blk55	; block 55 START_ADDR
  2278  000290  00000768           	ddw	__end_of_OpenXLCD	; block 55 END_ADDR
  2279  000294  0000075E           	ddw	__ccov65_start_blk53	; block 53 START_ADDR
  2280  000298  00000764           	ddw	__ccov65_end_blk53	; block 53 END_ADDR
  2281  00029C  0000074A           	ddw	__ccov64_start_blk51	; block 51 START_ADDR
  2282  0002A0  0000075E           	ddw	__ccov64_end_blk51	; block 51 END_ADDR
  2283  0002A4  00000744           	ddw	__ccov63_start_blk48	; block 48 START_ADDR
  2284  0002A8  0000074A           	ddw	__ccov63_end_blk48	; block 48 END_ADDR
  2285  0002AC  00000730           	ddw	__ccov62_start_blk46	; block 46 START_ADDR
  2286  0002B0  00000744           	ddw	__ccov62_end_blk46	; block 46 END_ADDR
  2287  0002B4  0000072A           	ddw	__ccov61_start_blk43	; block 43 START_ADDR
  2288  0002B8  00000730           	ddw	__ccov61_end_blk43	; block 43 END_ADDR
  2289  0002BC  00000716           	ddw	__ccov60_start_blk41	; block 41 START_ADDR
  2290  0002C0  0000072A           	ddw	__ccov60_end_blk41	; block 41 END_ADDR
  2291  0002C4  00000710           	ddw	__ccov59_start_blk38	; block 38 START_ADDR
  2292  0002C8  00000716           	ddw	__ccov59_end_blk38	; block 38 END_ADDR
  2293  0002CC  000006FC           	ddw	__ccov58_start_blk36	; block 36 START_ADDR
  2294  0002D0  00000710           	ddw	__ccov58_end_blk36	; block 36 END_ADDR
  2295  0002D4  000006F6           	ddw	__ccov57_start_blk33	; block 33 START_ADDR
  2296  0002D8  000006FC           	ddw	__ccov57_end_blk33	; block 33 END_ADDR
  2297  0002DC  000006E2           	ddw	__ccov56_start_blk31	; block 31 START_ADDR
  2298  0002E0  000006F6           	ddw	__ccov56_end_blk31	; block 31 END_ADDR
  2299  0002E4  000006DC           	ddw	__ccov55_start_blk28	; block 28 START_ADDR
  2300  0002E8  000006E2           	ddw	__ccov55_end_blk28	; block 28 END_ADDR
  2301  0002EC  000006C8           	ddw	__ccov54_start_blk26	; block 26 START_ADDR
  2302  0002F0  000006DC           	ddw	__ccov54_end_blk26	; block 26 END_ADDR
  2303  0002F4  000006C2           	ddw	__ccov53_start_blk23	; block 23 START_ADDR
  2304  0002F8  000006C8           	ddw	__ccov53_end_blk23	; block 23 END_ADDR
  2305  0002FC  000006AE           	ddw	__ccov52_start_blk21	; block 21 START_ADDR
  2306  000300  000006C2           	ddw	__ccov52_end_blk21	; block 21 END_ADDR
  2307  000304  000006A8           	ddw	__ccov51_start_blk18	; block 18 START_ADDR
  2308  000308  000006AE           	ddw	__ccov51_end_blk18	; block 18 END_ADDR
  2309  00030C  00000694           	ddw	__ccov50_start_blk16	; block 16 START_ADDR
  2310  000310  000006A8           	ddw	__ccov50_end_blk16	; block 16 END_ADDR
  2311  000314  0000068E           	ddw	__ccov49_start_blk13	; block 13 START_ADDR
  2312  000318  00000694           	ddw	__ccov49_end_blk13	; block 13 END_ADDR
  2313  00031C  00000688           	ddw	__ccov48_start_blk12	; block 12 START_ADDR
  2314  000320  0000068E           	ddw	__ccov48_end_blk12	; block 12 END_ADDR
  2315  000324  00000680           	ddw	__ccov47_start_blk11	; block 11 START_ADDR
  2316  000328  00000688           	ddw	__ccov47_end_blk11	; block 11 END_ADDR
  2317  00032C  0000067A           	ddw	__ccov46_start_blk10	; block 10 START_ADDR
  2318  000330  00000680           	ddw	__ccov46_end_blk10	; block 10 END_ADDR
  2319  000334  0000066A           	ddw	__ccov45_start_blk9	; block 9 START_ADDR
  2320  000338  0000067A           	ddw	__ccov45_end_blk9	; block 9 END_ADDR
  2321  00033C  00000664           	ddw	__ccov44_start_blk8	; block 8 START_ADDR
  2322  000340  0000066A           	ddw	__ccov44_end_blk8	; block 8 END_ADDR
  2323  000344  00000656           	ddw	__ccov43_start_blk7	; block 7 START_ADDR
  2324  000348  00000664           	ddw	__ccov43_end_blk7	; block 7 END_ADDR
  2325  00034C  00000654           	ddw	__ccov42_start_blk6	; block 6 START_ADDR
  2326  000350  00000656           	ddw	__ccov42_end_blk6	; block 6 END_ADDR
  2327  000354  00000652           	ddw	__ccov41_start_blk5	; block 5 START_ADDR
  2328  000358  00000654           	ddw	__ccov41_end_blk5	; block 5 END_ADDR
  2329  00035C  00000650           	ddw	__ccov40_start_blk4	; block 4 START_ADDR
  2330  000360  00000652           	ddw	__ccov40_end_blk4	; block 4 END_ADDR
  2331  000364  0000064E           	ddw	__ccov39_start_blk3	; block 3 START_ADDR
  2332  000368  00000650           	ddw	__ccov39_end_blk3	; block 3 END_ADDR
  2333  00036C  0000064C           	ddw	__ccov38_start_blk2	; block 2 START_ADDR
  2334  000370  0000064E           	ddw	__ccov38_end_blk2	; block 2 END_ADDR
  2335  000374  0000064A           	ddw	__ccov37_start_blk1	; block 1 START_ADDR
  2336  000378  0000064C           	ddw	__ccov37_end_blk1	; block 1 END_ADDR
  2337  00037C  00000640           	ddw	_OpenXLCD	; block 0 START_ADDR
  2338  000380  0000064A           	ddw	__ccov36_end_blk0	; block 0 END_ADDR
  2339                           
  2340                           ; Function: putrsXLCD, coverage: 7,6,4,9,0
  2341  000384  00000000           	ddw	0	; CC_ADDR_SPACE=Data
  2342  000388  00000001           	ddw	__ccovbit7_12/(0+8)	; CC_ADDR
  2343  00038C  00000001           	ddw	1	; NUM_POINTS
  2344  000390  00000006           	ddw	__ccovbit7_12& (0+7)	; OFFSET
  2345  000394  00000000           	ddw	0	; Reserved
  2346  000398  FFFFFFFF           	ddw	4294967295	; RANGE_SPACE=restricted
  2347  00039C  00000005           	ddw	5	; NUM_RANGES
  2348  0003A0  000008AE           	ddw	__ccov70_start_blk7	; block 7 START_ADDR
  2349  0003A4  000008B4           	ddw	__ccov70_end_blk7	; block 7 END_ADDR
  2350  0003A8  0000088A           	ddw	__ccov69_start_blk6	; block 6 START_ADDR
  2351  0003AC  000008AE           	ddw	__ccov69_end_blk6	; block 6 END_ADDR
  2352  0003B0  00000876           	ddw	__ccov68_start_blk4	; block 4 START_ADDR
  2353  0003B4  0000088A           	ddw	__ccov68_end_blk4	; block 4 END_ADDR
  2354  0003B8  000008B4           	ddw	__ccov71_start_blk9	; block 9 START_ADDR
  2355  0003BC  000008E4           	ddw	__ccov71_end_blk9	; block 9 END_ADDR
  2356  0003C0  00000872           	ddw	_putrsXLCD	; block 0 START_ADDR
  2357  0003C4  00000876           	ddw	__ccov67_end_blk0	; block 0 END_ADDR
  2358                           
  2359                           ; Function: putrsXLCD, coverage: 11,9,0
  2360  0003C8  00000000           	ddw	0	; CC_ADDR_SPACE=Data
  2361  0003CC  00000001           	ddw	__ccovbit11_13/(0+8)	; CC_ADDR
  2362  0003D0  00000001           	ddw	1	; NUM_POINTS
  2363  0003D4  00000005           	ddw	__ccovbit11_13& (0+7)	; OFFSET
  2364  0003D8  00000000           	ddw	0	; Reserved
  2365  0003DC  FFFFFFFF           	ddw	4294967295	; RANGE_SPACE=restricted
  2366  0003E0  00000003           	ddw	3	; NUM_RANGES
  2367  0003E4  000008E4           	ddw	__ccov72_start_blk11	; block 11 START_ADDR
  2368  0003E8  000008E8           	ddw	__end_of_putrsXLCD	; block 11 END_ADDR
  2369  0003EC  000008B4           	ddw	__ccov71_start_blk9	; block 9 START_ADDR
  2370  0003F0  000008E4           	ddw	__ccov71_end_blk9	; block 9 END_ADDR
  2371  0003F4  00000872           	ddw	_putrsXLCD	; block 0 START_ADDR
  2372  0003F8  00000876           	ddw	__ccov67_end_blk0	; block 0 END_ADDR
  2373                           
  2374                           ; Function: SetDDRamAddr, coverage: 12,10,9,8,7,6,5,4,3,2,1,0
  2375  0003FC  00000000           	ddw	0	; CC_ADDR_SPACE=Data
  2376  000400  00000001           	ddw	__ccovbit12_14/(0+8)	; CC_ADDR
  2377  000404  00000001           	ddw	1	; NUM_POINTS
  2378  000408  00000004           	ddw	__ccovbit12_14& (0+7)	; OFFSET
  2379  00040C  00000000           	ddw	0	; Reserved
  2380  000410  FFFFFFFF           	ddw	4294967295	; RANGE_SPACE=restricted
  2381  000414  0000000C           	ddw	12	; NUM_RANGES
  2382  000418  000009CE           	ddw	__ccov84_start_blk12	; block 12 START_ADDR
  2383  00041C  000009D2           	ddw	__end_of_SetDDRamAddr	; block 12 END_ADDR
  2384  000420  000009C8           	ddw	__ccov83_start_blk10	; block 10 START_ADDR
  2385  000424  000009CE           	ddw	__ccov83_end_blk10	; block 10 END_ADDR
  2386  000428  000009C4           	ddw	__ccov82_start_blk9	; block 9 START_ADDR
  2387  00042C  000009C8           	ddw	__ccov82_end_blk9	; block 9 END_ADDR
  2388  000430  000009C2           	ddw	__ccov81_start_blk8	; block 8 START_ADDR
  2389  000434  000009C4           	ddw	__ccov81_end_blk8	; block 8 END_ADDR
  2390  000438  000009BE           	ddw	__ccov80_start_blk7	; block 7 START_ADDR
  2391  00043C  000009C2           	ddw	__ccov80_end_blk7	; block 7 END_ADDR
  2392  000440  000009B2           	ddw	__ccov79_start_blk6	; block 6 START_ADDR
  2393  000444  000009BE           	ddw	__ccov79_end_blk6	; block 6 END_ADDR
  2394  000448  000009AE           	ddw	__ccov78_start_blk5	; block 5 START_ADDR
  2395  00044C  000009B2           	ddw	__ccov78_end_blk5	; block 5 END_ADDR
  2396  000450  000009AC           	ddw	__ccov77_start_blk4	; block 4 START_ADDR
  2397  000454  000009AE           	ddw	__ccov77_end_blk4	; block 4 END_ADDR
  2398  000458  000009A8           	ddw	__ccov76_start_blk3	; block 3 START_ADDR
  2399  00045C  000009AC           	ddw	__ccov76_end_blk3	; block 3 END_ADDR
  2400  000460  000009A6           	ddw	__ccov75_start_blk2	; block 2 START_ADDR
  2401  000464  000009A8           	ddw	__ccov75_end_blk2	; block 2 END_ADDR
  2402  000468  000009A4           	ddw	__ccov74_start_blk1	; block 1 START_ADDR
  2403  00046C  000009A6           	ddw	__ccov74_end_blk1	; block 1 END_ADDR
  2404  000470  0000098A           	ddw	_SetDDRamAddr	; block 0 START_ADDR
  2405  000474  000009A4           	ddw	__ccov73_end_blk0	; block 0 END_ADDR
  2406                           
  2407                           ; Function: WriteCmdXLCD, coverage: 11,10,9,8,7,6,5,4,3,2,1,0
  2408  000478  00000000           	ddw	0	; CC_ADDR_SPACE=Data
  2409  00047C  00000001           	ddw	__ccovbit11_15/(0+8)	; CC_ADDR
  2410  000480  00000001           	ddw	1	; NUM_POINTS
  2411  000484  00000003           	ddw	__ccovbit11_15& (0+7)	; OFFSET
  2412  000488  00000000           	ddw	0	; Reserved
  2413  00048C  FFFFFFFF           	ddw	4294967295	; RANGE_SPACE=restricted
  2414  000490  0000000C           	ddw	12	; NUM_RANGES
  2415  000494  00000934           	ddw	__ccov96_start_blk11	; block 11 START_ADDR
  2416  000498  0000093A           	ddw	__ccov96_end_blk11	; block 11 END_ADDR
  2417  00049C  0000091E           	ddw	__ccov95_start_blk10	; block 10 START_ADDR
  2418  0004A0  00000934           	ddw	__ccov95_end_blk10	; block 10 END_ADDR
  2419  0004A4  0000091A           	ddw	__ccov94_start_blk9	; block 9 START_ADDR
  2420  0004A8  0000091E           	ddw	__ccov94_end_blk9	; block 9 END_ADDR
  2421  0004AC  00000918           	ddw	__ccov93_start_blk8	; block 8 START_ADDR
  2422  0004B0  0000091A           	ddw	__ccov93_end_blk8	; block 8 END_ADDR
  2423  0004B4  00000914           	ddw	__ccov92_start_blk7	; block 7 START_ADDR
  2424  0004B8  00000918           	ddw	__ccov92_end_blk7	; block 7 END_ADDR
  2425  0004BC  00000908           	ddw	__ccov91_start_blk6	; block 6 START_ADDR
  2426  0004C0  00000914           	ddw	__ccov91_end_blk6	; block 6 END_ADDR
  2427  0004C4  00000904           	ddw	__ccov90_start_blk5	; block 5 START_ADDR
  2428  0004C8  00000908           	ddw	__ccov90_end_blk5	; block 5 END_ADDR
  2429  0004CC  00000902           	ddw	__ccov89_start_blk4	; block 4 START_ADDR
  2430  0004D0  00000904           	ddw	__ccov89_end_blk4	; block 4 END_ADDR
  2431  0004D4  000008FE           	ddw	__ccov88_start_blk3	; block 3 START_ADDR
  2432  0004D8  00000902           	ddw	__ccov88_end_blk3	; block 3 END_ADDR
  2433  0004DC  000008FC           	ddw	__ccov87_start_blk2	; block 2 START_ADDR
  2434  0004E0  000008FE           	ddw	__ccov87_end_blk2	; block 2 END_ADDR
  2435  0004E4  000008FA           	ddw	__ccov86_start_blk1	; block 1 START_ADDR
  2436  0004E8  000008FC           	ddw	__ccov86_end_blk1	; block 1 END_ADDR
  2437  0004EC  000008E8           	ddw	_WriteCmdXLCD	; block 0 START_ADDR
  2438  0004F0  000008FA           	ddw	__ccov85_end_blk0	; block 0 END_ADDR
  2439                           
  2440                           ; Function: WriteCmdXLCD, coverage: 14,10,9,8,7,6,5,4,3,2,1,0
  2441  0004F4  00000000           	ddw	0	; CC_ADDR_SPACE=Data
  2442  0004F8  00000001           	ddw	__ccovbit14_16/(0+8)	; CC_ADDR
  2443  0004FC  00000001           	ddw	1	; NUM_POINTS
  2444  000500  00000002           	ddw	__ccovbit14_16& (0+7)	; OFFSET
  2445  000504  00000000           	ddw	0	; Reserved
  2446  000508  FFFFFFFF           	ddw	4294967295	; RANGE_SPACE=restricted
  2447  00050C  0000000C           	ddw	12	; NUM_RANGES
  2448  000510  0000093A           	ddw	__ccov97_start_blk14	; block 14 START_ADDR
  2449  000514  0000093E           	ddw	__end_of_WriteCmdXLCD	; block 14 END_ADDR
  2450  000518  0000091E           	ddw	__ccov95_start_blk10	; block 10 START_ADDR
  2451  00051C  00000934           	ddw	__ccov95_end_blk10	; block 10 END_ADDR
  2452  000520  0000091A           	ddw	__ccov94_start_blk9	; block 9 START_ADDR
  2453  000524  0000091E           	ddw	__ccov94_end_blk9	; block 9 END_ADDR
  2454  000528  00000918           	ddw	__ccov93_start_blk8	; block 8 START_ADDR
  2455  00052C  0000091A           	ddw	__ccov93_end_blk8	; block 8 END_ADDR
  2456  000530  00000914           	ddw	__ccov92_start_blk7	; block 7 START_ADDR
  2457  000534  00000918           	ddw	__ccov92_end_blk7	; block 7 END_ADDR
  2458  000538  00000908           	ddw	__ccov91_start_blk6	; block 6 START_ADDR
  2459  00053C  00000914           	ddw	__ccov91_end_blk6	; block 6 END_ADDR
  2460  000540  00000904           	ddw	__ccov90_start_blk5	; block 5 START_ADDR
  2461  000544  00000908           	ddw	__ccov90_end_blk5	; block 5 END_ADDR
  2462  000548  00000902           	ddw	__ccov89_start_blk4	; block 4 START_ADDR
  2463  00054C  00000904           	ddw	__ccov89_end_blk4	; block 4 END_ADDR
  2464  000550  000008FE           	ddw	__ccov88_start_blk3	; block 3 START_ADDR
  2465  000554  00000902           	ddw	__ccov88_end_blk3	; block 3 END_ADDR
  2466  000558  000008FC           	ddw	__ccov87_start_blk2	; block 2 START_ADDR
  2467  00055C  000008FE           	ddw	__ccov87_end_blk2	; block 2 END_ADDR
  2468  000560  000008FA           	ddw	__ccov86_start_blk1	; block 1 START_ADDR
  2469  000564  000008FC           	ddw	__ccov86_end_blk1	; block 1 END_ADDR
  2470  000568  000008E8           	ddw	_WriteCmdXLCD	; block 0 START_ADDR
  2471  00056C  000008FA           	ddw	__ccov85_end_blk0	; block 0 END_ADDR
  2472                           
  2473                           ; Function: WriteDataXLCD, coverage: 12,10,9,8,7,6,5,4,3,2,1,0
  2474  000570  00000000           	ddw	0	; CC_ADDR_SPACE=Data
  2475  000574  00000001           	ddw	__ccovbit12_17/(0+8)	; CC_ADDR
  2476  000578  00000001           	ddw	1	; NUM_POINTS
  2477  00057C  00000001           	ddw	__ccovbit12_17& (0+7)	; OFFSET
  2478  000580  00000000           	ddw	0	; Reserved
  2479  000584  FFFFFFFF           	ddw	4294967295	; RANGE_SPACE=restricted
  2480  000588  0000000C           	ddw	12	; NUM_RANGES
  2481  00058C  00000A0E           	ddw	__ccov109_start_blk12	; block 12 START_ADDR
  2482  000590  00000A12           	ddw	__end_of_WriteDataXLCD	; block 12 END_ADDR
  2483  000594  00000A08           	ddw	__ccov108_start_blk10	; block 10 START_ADDR
  2484  000598  00000A0E           	ddw	__ccov108_end_blk10	; block 10 END_ADDR
  2485  00059C  00000A04           	ddw	__ccov107_start_blk9	; block 9 START_ADDR
  2486  0005A0  00000A08           	ddw	__ccov107_end_blk9	; block 9 END_ADDR
  2487  0005A4  00000A02           	ddw	__ccov106_start_blk8	; block 8 START_ADDR
  2488  0005A8  00000A04           	ddw	__ccov106_end_blk8	; block 8 END_ADDR
  2489  0005AC  000009FE           	ddw	__ccov105_start_blk7	; block 7 START_ADDR
  2490  0005B0  00000A02           	ddw	__ccov105_end_blk7	; block 7 END_ADDR
  2491  0005B4  000009F2           	ddw	__ccov104_start_blk6	; block 6 START_ADDR
  2492  0005B8  000009FE           	ddw	__ccov104_end_blk6	; block 6 END_ADDR
  2493  0005BC  000009EE           	ddw	__ccov103_start_blk5	; block 5 START_ADDR
  2494  0005C0  000009F2           	ddw	__ccov103_end_blk5	; block 5 END_ADDR
  2495  0005C4  000009EC           	ddw	__ccov102_start_blk4	; block 4 START_ADDR
  2496  0005C8  000009EE           	ddw	__ccov102_end_blk4	; block 4 END_ADDR
  2497  0005CC  000009E8           	ddw	__ccov101_start_blk3	; block 3 START_ADDR
  2498  0005D0  000009EC           	ddw	__ccov101_end_blk3	; block 3 END_ADDR
  2499  0005D4  000009E6           	ddw	__ccov100_start_blk2	; block 2 START_ADDR
  2500  0005D8  000009E8           	ddw	__ccov100_end_blk2	; block 2 END_ADDR
  2501  0005DC  000009E4           	ddw	__ccov99_start_blk1	; block 1 START_ADDR
  2502  0005E0  000009E6           	ddw	__ccov99_end_blk1	; block 1 END_ADDR
  2503  0005E4  000009D2           	ddw	_WriteDataXLCD	; block 0 START_ADDR
  2504  0005E8  000009E4           	ddw	__ccov98_end_blk0	; block 0 END_ADDR
  2505                           
  2506                           ; Function: main, coverage: 33,31,29,27,24,23,21,18,16,13,12,10,7,5,1,0
  2507  0005EC  00000000           	ddw	0	; CC_ADDR_SPACE=Data
  2508  0005F0  00000001           	ddw	__ccovbit33_18/(0+8)	; CC_ADDR
  2509  0005F4  00000001           	ddw	1	; NUM_POINTS
  2510  0005F8  00000000           	ddw	__ccovbit33_18& (0+7)	; OFFSET
  2511  0005FC  00000000           	ddw	0	; Reserved
  2512  000600  FFFFFFFF           	ddw	4294967295	; RANGE_SPACE=restricted
  2513  000604  00000010           	ddw	16	; NUM_RANGES
  2514  000608  00000852           	ddw	__ccov125_start_blk33	; block 33 START_ADDR
  2515  00060C  0000086E           	ddw	__ccov125_end_blk33	; block 33 END_ADDR
  2516  000610  00000832           	ddw	__ccov124_start_blk31	; block 31 START_ADDR
  2517  000614  00000852           	ddw	__ccov124_end_blk31	; block 31 END_ADDR
  2518  000618  0000082C           	ddw	__ccov123_start_blk29	; block 29 START_ADDR
  2519  00061C  00000832           	ddw	__ccov123_end_blk29	; block 29 END_ADDR
  2520  000620  00000818           	ddw	__ccov122_start_blk27	; block 27 START_ADDR
  2521  000624  0000082C           	ddw	__ccov122_end_blk27	; block 27 END_ADDR
  2522  000628  00000802           	ddw	__ccov121_start_blk24	; block 24 START_ADDR
  2523  00062C  00000818           	ddw	__ccov121_end_blk24	; block 24 END_ADDR
  2524  000630  000007F2           	ddw	__ccov120_start_blk23	; block 23 START_ADDR
  2525  000634  00000802           	ddw	__ccov120_end_blk23	; block 23 END_ADDR
  2526  000638  000007DE           	ddw	__ccov119_start_blk21	; block 21 START_ADDR
  2527  00063C  000007F2           	ddw	__ccov119_end_blk21	; block 21 END_ADDR
  2528  000640  000007D8           	ddw	__ccov118_start_blk18	; block 18 START_ADDR
  2529  000644  000007DE           	ddw	__ccov118_end_blk18	; block 18 END_ADDR
  2530  000648  000007C4           	ddw	__ccov117_start_blk16	; block 16 START_ADDR
  2531  00064C  000007D8           	ddw	__ccov117_end_blk16	; block 16 END_ADDR
  2532  000650  000007AE           	ddw	__ccov116_start_blk13	; block 13 START_ADDR
  2533  000654  000007C4           	ddw	__ccov116_end_blk13	; block 13 END_ADDR
  2534  000658  0000079E           	ddw	__ccov115_start_blk12	; block 12 START_ADDR
  2535  00065C  000007AE           	ddw	__ccov115_end_blk12	; block 12 END_ADDR
  2536  000660  0000078A           	ddw	__ccov114_start_blk10	; block 10 START_ADDR
  2537  000664  0000079E           	ddw	__ccov114_end_blk10	; block 10 END_ADDR
  2538  000668  00000784           	ddw	__ccov113_start_blk7	; block 7 START_ADDR
  2539  00066C  0000078A           	ddw	__ccov113_end_blk7	; block 7 END_ADDR
  2540  000670  00000770           	ddw	__ccov112_start_blk5	; block 5 START_ADDR
  2541  000674  00000784           	ddw	__ccov112_end_blk5	; block 5 END_ADDR
  2542  000678  0000076C           	ddw	__ccov111_start_blk1	; block 1 START_ADDR
  2543  00067C  00000770           	ddw	__ccov111_end_blk1	; block 1 END_ADDR
  2544  000680  00000768           	ddw	_main	; block 0 START_ADDR
  2545  000684  0000076C           	ddw	__ccov110_end_blk0	; block 0 END_ADDR
  2546                           
  2547                           	psect	rparam
  2548  0000                     
  2549                           	psect	idloc
  2550                           
  2551                           ;Config register IDLOC0 @ 0x200000
  2552                           ;	unspecified, using default values
  2553  200000                     	org	2097152
  2554  200000  FF                 	db	255
  2555                           
  2556                           ;Config register IDLOC1 @ 0x200001
  2557                           ;	unspecified, using default values
  2558  200001                     	org	2097153
  2559  200001  FF                 	db	255
  2560                           
  2561                           ;Config register IDLOC2 @ 0x200002
  2562                           ;	unspecified, using default values
  2563  200002                     	org	2097154
  2564  200002  FF                 	db	255
  2565                           
  2566                           ;Config register IDLOC3 @ 0x200003
  2567                           ;	unspecified, using default values
  2568  200003                     	org	2097155
  2569  200003  FF                 	db	255
  2570                           
  2571                           ;Config register IDLOC4 @ 0x200004
  2572                           ;	unspecified, using default values
  2573  200004                     	org	2097156
  2574  200004  FF                 	db	255
  2575                           
  2576                           ;Config register IDLOC5 @ 0x200005
  2577                           ;	unspecified, using default values
  2578  200005                     	org	2097157
  2579  200005  FF                 	db	255
  2580                           
  2581                           ;Config register IDLOC6 @ 0x200006
  2582                           ;	unspecified, using default values
  2583  200006                     	org	2097158
  2584  200006  FF                 	db	255
  2585                           
  2586                           ;Config register IDLOC7 @ 0x200007
  2587                           ;	unspecified, using default values
  2588  200007                     	org	2097159
  2589  200007  FF                 	db	255
  2590                           
  2591                           	psect	config
  2592                           
  2593                           ; Padding undefined space
  2594  300000                     	org	3145728
  2595  300000  FF                 	db	255
  2596                           
  2597                           ;Config register CONFIG1H @ 0x300001
  2598                           ;	Oscillator Selection bits
  2599                           ;	FOSC = HS, HS oscillator
  2600                           ;	Fail-Safe Clock Monitor Enable bit
  2601                           ;	FCMEN = OFF, Fail-Safe Clock Monitor disabled
  2602                           ;	Internal/External Oscillator Switchover bit
  2603                           ;	IESO = OFF, Oscillator Switchover mode disabled
  2604  300001                     	org	3145729
  2605  300001  02                 	db	2
  2606                           
  2607                           ;Config register CONFIG2L @ 0x300002
  2608                           ;	Power-up Timer Enable bit
  2609                           ;	PWRT = OFF, PWRT disabled
  2610                           ;	Brown-out Reset Enable bits
  2611                           ;	BOREN = SBORDIS, Brown-out Reset enabled in hardware only (SBOREN is disabled)
  2612                           ;	Brown Out Reset Voltage bits
  2613                           ;	BORV = 18, VBOR set to 1.8 V nominal
  2614  300002                     	org	3145730
  2615  300002  1F                 	db	31
  2616                           
  2617                           ;Config register CONFIG2H @ 0x300003
  2618                           ;	Watchdog Timer Enable bit
  2619                           ;	WDTEN = OFF, WDT is controlled by SWDTEN bit of the WDTCON register
  2620                           ;	Watchdog Timer Postscale Select bits
  2621                           ;	WDTPS = 32768, 1:32768
  2622  300003                     	org	3145731
  2623  300003  1E                 	db	30
  2624                           
  2625                           ; Padding undefined space
  2626  300004                     	org	3145732
  2627  300004  FF                 	db	255
  2628                           
  2629                           ;Config register CONFIG3H @ 0x300005
  2630                           ;	CCP2 MUX bit
  2631                           ;	CCP2MX = PORTC, CCP2 input/output is multiplexed with RC1
  2632                           ;	PORTB A/D Enable bit
  2633                           ;	PBADEN = ON, PORTB<4:0> pins are configured as analog input channels on Reset
  2634                           ;	Low-Power Timer1 Oscillator Enable bit
  2635                           ;	LPT1OSC = OFF, Timer1 configured for higher power operation
  2636                           ;	HFINTOSC Fast Start-up
  2637                           ;	HFOFST = ON, HFINTOSC starts clocking the CPU without waiting for the oscillator to st
      +                          ablize.
  2638                           ;	MCLR Pin Enable bit
  2639                           ;	MCLRE = ON, MCLR pin enabled; RE3 input pin disabled
  2640  300005                     	org	3145733
  2641  300005  8B                 	db	139
  2642                           
  2643                           ;Config register CONFIG4L @ 0x300006
  2644                           ;	Stack Full/Underflow Reset Enable bit
  2645                           ;	STVREN = ON, Stack full/underflow will cause Reset
  2646                           ;	Single-Supply ICSP Enable bit
  2647                           ;	LVP = OFF, Single-Supply ICSP disabled
  2648                           ;	Extended Instruction Set Enable bit
  2649                           ;	XINST = OFF, Instruction set extension and Indexed Addressing mode disabled (Legacy mo
      +                          de)
  2650                           ;	Background Debugger Enable bit
  2651                           ;	DEBUG = OFF, Background debugger disabled, RB6 and RB7 configured as general purpose I
      +                          /O pins
  2652  300006                     	org	3145734
  2653  300006  81                 	db	129
  2654                           
  2655                           ; Padding undefined space
  2656  300007                     	org	3145735
  2657  300007  FF                 	db	255
  2658                           
  2659                           ;Config register CONFIG5L @ 0x300008
  2660                           ;	Code Protection Block 0
  2661                           ;	CP0 = OFF, Block 0 (000800-001FFFh) not code-protected
  2662                           ;	Code Protection Block 1
  2663                           ;	CP1 = OFF, Block 1 (002000-003FFFh) not code-protected
  2664                           ;	Code Protection Block 2
  2665                           ;	CP2 = OFF, Block 2 (004000-005FFFh) not code-protected
  2666                           ;	Code Protection Block 3
  2667                           ;	CP3 = OFF, Block 3 (006000-007FFFh) not code-protected
  2668  300008                     	org	3145736
  2669  300008  0F                 	db	15
  2670                           
  2671                           ;Config register CONFIG5H @ 0x300009
  2672                           ;	Boot Block Code Protection bit
  2673                           ;	CPB = OFF, Boot block (000000-0007FFh) not code-protected
  2674                           ;	Data EEPROM Code Protection bit
  2675                           ;	CPD = OFF, Data EEPROM not code-protected
  2676  300009                     	org	3145737
  2677  300009  C0                 	db	192
  2678                           
  2679                           ;Config register CONFIG6L @ 0x30000A
  2680                           ;	Write Protection Block 0
  2681                           ;	WRT0 = OFF, Block 0 (000800-001FFFh) not write-protected
  2682                           ;	Write Protection Block 1
  2683                           ;	WRT1 = OFF, Block 1 (002000-003FFFh) not write-protected
  2684                           ;	Write Protection Block 2
  2685                           ;	WRT2 = OFF, Block 2 (004000-005FFFh) not write-protected
  2686                           ;	Write Protection Block 3
  2687                           ;	WRT3 = OFF, Block 3 (006000-007FFFh) not write-protected
  2688  30000A                     	org	3145738
  2689  30000A  0F                 	db	15
  2690                           
  2691                           ;Config register CONFIG6H @ 0x30000B
  2692                           ;	Configuration Register Write Protection bit
  2693                           ;	WRTC = OFF, Configuration registers (300000-3000FFh) not write-protected
  2694                           ;	Boot Block Write Protection bit
  2695                           ;	WRTB = OFF, Boot Block (000000-0007FFh) not write-protected
  2696                           ;	Data EEPROM Write Protection bit
  2697                           ;	WRTD = OFF, Data EEPROM not write-protected
  2698  30000B                     	org	3145739
  2699  30000B  E0                 	db	224
  2700                           
  2701                           ;Config register CONFIG7L @ 0x30000C
  2702                           ;	Table Read Protection Block 0
  2703                           ;	EBTR0 = OFF, Block 0 (000800-001FFFh) not protected from table reads executed in other
      +                           blocks
  2704                           ;	Table Read Protection Block 1
  2705                           ;	EBTR1 = OFF, Block 1 (002000-003FFFh) not protected from table reads executed in other
      +                           blocks
  2706                           ;	Table Read Protection Block 2
  2707                           ;	EBTR2 = OFF, Block 2 (004000-005FFFh) not protected from table reads executed in other
      +                           blocks
  2708                           ;	Table Read Protection Block 3
  2709                           ;	EBTR3 = OFF, Block 3 (006000-007FFFh) not protected from table reads executed in other
      +                           blocks
  2710  30000C                     	org	3145740
  2711  30000C  0F                 	db	15
  2712                           
  2713                           ;Config register CONFIG7H @ 0x30000D
  2714                           ;	Boot Block Table Read Protection bit
  2715                           ;	EBTRB = OFF, Boot Block (000000-0007FFh) not protected from table reads executed in ot
      +                          her blocks
  2716  30000D                     	org	3145741
  2717  30000D  40                 	db	64
  2718                           tosu	equ	0xFFF
  2719                           tosh	equ	0xFFE
  2720                           tosl	equ	0xFFD
  2721                           stkptr	equ	0xFFC
  2722                           pclatu	equ	0xFFB
  2723                           pclath	equ	0xFFA
  2724                           pcl	equ	0xFF9
  2725                           tblptru	equ	0xFF8
  2726                           tblptrh	equ	0xFF7
  2727                           tblptrl	equ	0xFF6
  2728                           tablat	equ	0xFF5
  2729                           prodh	equ	0xFF4
  2730                           prodl	equ	0xFF3
  2731                           indf0	equ	0xFEF
  2732                           postinc0	equ	0xFEE
  2733                           postdec0	equ	0xFED
  2734                           preinc0	equ	0xFEC
  2735                           plusw0	equ	0xFEB
  2736                           fsr0h	equ	0xFEA
  2737                           fsr0l	equ	0xFE9
  2738                           wreg	equ	0xFE8
  2739                           indf1	equ	0xFE7
  2740                           postinc1	equ	0xFE6
  2741                           postdec1	equ	0xFE5
  2742                           preinc1	equ	0xFE4
  2743                           plusw1	equ	0xFE3
  2744                           fsr1h	equ	0xFE2
  2745                           fsr1l	equ	0xFE1
  2746                           bsr	equ	0xFE0
  2747                           indf2	equ	0xFDF
  2748                           postinc2	equ	0xFDE
  2749                           postdec2	equ	0xFDD
  2750                           preinc2	equ	0xFDC
  2751                           plusw2	equ	0xFDB
  2752                           fsr2h	equ	0xFDA
  2753                           fsr2l	equ	0xFD9
  2754                           status	equ	0xFD8

Data Sizes:
    Strings     61
    Constant    0
    Data        0
    BSS         17
    Persistent  0
    Stack       0

Auto Spaces:
    Space          Size  Autos    Used
    COMRAM           95      6      26
    BANK0           160      0       0
    BANK1           256      0       0
    BANK2           256      0       0
    BANK3           256      0       0
    BANK4           256      0       0
    BANK5           256      0       0

Pointer List with Targets:

    vfprintf$2	PTR PTR void  size(1) Largest target is 1
		 -> sprintf@ap(COMRAM[1]), 

    vfprintf$1	PTR const unsigned char  size(1) Largest target is 11
		 -> STR_5(CODE[11]), 

    vfprintf$0	PTR struct _IO_FILE size(1) Largest target is 7
		 -> sprintf@f(COMRAM[5]), 

    S1266_IO_FILE$buffer	PTR unsigned char  size(1) Largest target is 17
		 -> ftoat_mio@buf(COMRAM[17]), 

    f.buffer	PTR unsigned char  size(1) Largest target is 17
		 -> ftoat_mio@buf(COMRAM[17]), 

    sp__ftoat_mio	PTR unsigned char  size(1) Largest target is 17
		 -> ftoat_mio@buf(COMRAM[17]), 

    putrsXLCD@buffer	PTR unsigned char  size(2) Largest target is 17
		 -> STR_6(CODE[1]), ftoat_mio@buf(COMRAM[17]), STR_4(CODE[14]), STR_3(CODE[16]), 
		 -> STR_2(CODE[8]), STR_1(CODE[12]), 


Critical Paths under _main in COMRAM

    _putrsXLCD->_WriteDataXLCD
    _LCD_inicio->_OpenXLCD
    _OpenXLCD->_SetDDRamAddr
    _OpenXLCD->_WriteCmdXLCD
    _WriteCmdXLCD->_DelayPORXLCD

Critical Paths under _main in BANK0

    None.

Critical Paths under _main in BANK1

    None.

Critical Paths under _main in BANK2

    None.

Critical Paths under _main in BANK3

    None.

Critical Paths under _main in BANK4

    None.

Critical Paths under _main in BANK5

    None.

Call Graph Tables:

 ---------------------------------------------------------------------------------
 (Depth) Function   	        Calls       Base Space   Used Autos Params    Refs
 ---------------------------------------------------------------------------------
 (0) _main                                                 2     2      0     689
                                              4 COMRAM     2     2      0
                           _BusyXLCD
                         _LCD_inicio
                  _SYSTEM_Initialize
                       _SetDDRamAddr
                       _WriteCmdXLCD
                          _putrsXLCD
 ---------------------------------------------------------------------------------
 (1) _putrsXLCD                                            2     0      2     479
                                              1 COMRAM     2     0      2
                           _BusyXLCD
                      _WriteDataXLCD
 ---------------------------------------------------------------------------------
 (2) _WriteDataXLCD                                        1     1      0      30
                                              0 COMRAM     1     1      0
                      _DelayFor18TCY
 ---------------------------------------------------------------------------------
 (1) _SYSTEM_Initialize                                    0     0      0       0
              _OSCILLATOR_Initialize
             _PIN_MANAGER_Initialize
 ---------------------------------------------------------------------------------
 (2) _PIN_MANAGER_Initialize                               0     0      0       0
 ---------------------------------------------------------------------------------
 (2) _OSCILLATOR_Initialize                                0     0      0       0
 ---------------------------------------------------------------------------------
 (1) _LCD_inicio                                           0     0      0     135
                          _DelayXLCD
                           _OpenXLCD
                       _WriteCmdXLCD
 ---------------------------------------------------------------------------------
 (2) _OpenXLCD                                             2     2      0      90
                                              2 COMRAM     2     2      0
                           _BusyXLCD
                       _SetDDRamAddr
                       _WriteCmdXLCD
 ---------------------------------------------------------------------------------
 (1) _WriteCmdXLCD                                         1     1      0      45
                                              1 COMRAM     1     1      0
                      _DelayFor18TCY
                       _DelayPORXLCD
 ---------------------------------------------------------------------------------
 (2) _DelayPORXLCD                                         1     1      0       0
                                              0 COMRAM     1     1      0
 ---------------------------------------------------------------------------------
 (1) _SetDDRamAddr                                         2     2      0      30
                                              0 COMRAM     2     2      0
                      _DelayFor18TCY
 ---------------------------------------------------------------------------------
 (2) _BusyXLCD                                             0     0      0       0
                      _DelayFor18TCY
 ---------------------------------------------------------------------------------
 (3) _DelayFor18TCY                                        0     0      0       0
 ---------------------------------------------------------------------------------
 (2) _DelayXLCD                                            1     1      0       0
                                              0 COMRAM     1     1      0
 ---------------------------------------------------------------------------------
 Estimated maximum stack depth 3
 ---------------------------------------------------------------------------------

 Call Graph Graphs:

 _main (ROOT)
   _BusyXLCD
     _DelayFor18TCY
   _LCD_inicio
     _DelayXLCD
     _OpenXLCD
       _BusyXLCD
         _DelayFor18TCY
       _SetDDRamAddr
         _DelayFor18TCY
       _WriteCmdXLCD
         _DelayFor18TCY
         _DelayPORXLCD
     _WriteCmdXLCD
       _DelayFor18TCY
       _DelayPORXLCD
   _SYSTEM_Initialize
     _OSCILLATOR_Initialize
     _PIN_MANAGER_Initialize
   _SetDDRamAddr
     _DelayFor18TCY
   _WriteCmdXLCD
     _DelayFor18TCY
     _DelayPORXLCD
   _putrsXLCD
     _BusyXLCD
       _DelayFor18TCY
     _WriteDataXLCD
       _DelayFor18TCY

 Address spaces:
Name               Size   Autos  Total    Cost      Usage
BIGRAM             5FF      0       0      17        0.0%
EEDATA             100      0       0       0        0.0%
BITBANK5           100      0       0      16        0.0%
BANK5              100      0       0      14        0.0%
BITBANK4           100      0       0      12        0.0%
BANK4              100      0       0      13        0.0%
BITBANK3           100      0       0      10        0.0%
BANK3              100      0       0      11        0.0%
BITBANK2           100      0       0       8        0.0%
BANK2              100      0       0       9        0.0%
BITBANK1           100      0       0       6        0.0%
BANK1              100      0       0       7        0.0%
BITBANK0            A0      0       0       4        0.0%
BANK0               A0      0       0       5        0.0%
BITCOMRAM           5F      0       3       0        3.2%
COMRAM              5F      6      1A       1       27.4%
BITSFR               0      0       0     200        0.0%
SFR                  0      0       0     200        0.0%
STACK                0      0       0       2        0.0%
NULL                 0      0       0       0        0.0%
ABS                  0      0      1A      15        0.0%
DATA                 0      0      1A       3        0.0%
CODE                 0      0       0       0        0.0%


Microchip Technology PIC18 Macro Assembler V2.31 build 20201012212115 
Symbol Table                                                                                   Fri Jan 29 13:45:20 2021

             __ccov108_end_blk10 0A0E               __ccov116_end_blk13 07C4  
             __ccov124_end_blk31 0852              __ccov111_start_blk1 076C  
            __ccov103_start_blk5 09EE               __pcodecov_info_hdr 0000  
            __ccov84_start_blk12 09CE                               l11 0AAA  
                             l14 0AB6                               l60 0A9E  
                             l53 0972                               l54 0986  
                             l63 0A90                               l39 0A34  
                             l66 0A7E                               l75 0A6A  
                             u10 095A                               u11 0956  
                             u20 0934                               u21 0930  
                             u30 06A8                               u31 06A4  
                             u40 06C2                               u41 06BE  
                             u50 06DC                               u51 06D8  
                             u60 06F6                               u61 06F2  
                             u70 0710                               u71 070C  
                             u80 072A                               u81 0726  
                             u90 0744                               u91 0740  
             __ccov109_end_blk12 0A12               __ccov117_end_blk16 07D8  
             __ccov125_end_blk33 086E                              l122 0764  
                            l212 093A                              l135 08E4  
                            l225 0A0E                              l196 09CE  
                            l994 0A94                              l996 0A82  
                            u100 075E                              u101 075A  
                            u210 088A                              u211 0886  
                            u220 08AA                              u300 0842  
                            u301 083C                              u230 08D4  
                            u240 08E4                              u241 08E0  
                            u306 0844                              u250 0784  
                            u227 08A0                              u251 0780  
                            u260 079E                              u237 08CA  
                            u317 07B8                              u261 079A  
                            u270 07D8                              u327 080C  
                            u271 07D4                              u280 07F2  
                            u337 085E                              u281 07EE  
                            u290 082C                              u347 065C  
                            u291 0828                              u357 0670  
                            u367 0682                              u377 0690  
                            u387 0A88                              u397 0A74  
                    ?_LCD_inicio 0015            __size_of_WriteCmdXLCD 0056  
             __ccov30_start_blk2 0A90               __ccov14_start_blk4 095A  
                            wreg 000FE8               __ccov118_end_blk18 07DE  
            __ccov112_start_blk5 0770              __ccov104_start_blk6 09F2  
                           l1000 093E                             l1010 095C  
                           l1002 0942                             l1012 0960  
                           l1004 0946                             l1100 0642  
                           l1030 0980                             l1014 0966  
                           l1006 094C                             l1110 0652  
                           l1102 064A                             l1032 0982  
                           l1024 0974                             l1016 0968  
                           l1008 095A                             l1040 08FC  
                           l1120 067A                             l1112 0654  
                           l1104 064C                             l1026 0978  
                           l1018 096A                             l1050 0914  
                           l1042 08FE                             l1130 06A8  
                           l1122 0680                             l1114 0656  
                           l1106 064E                             l1028 097E  
                           l1052 0918                             l1044 0902  
                           l1036 08EA                             l1140 06E2  
                           l1132 06AE                             l1124 0688  
                           l1116 0664                             l1108 0650  
                           l1070 09AC                             l1062 098C  
                           l1054 091A                             l1046 0904  
                           l1038 08FA                             l1150 072A  
                           l1142 06F6                             l1134 06C2  
                           l1126 068E                             l1118 066A  
                           l1080 09C4                             l1072 09AE  
                           l1064 09A4                             l1056 091E  
                           l1048 0908                             l1152 0730  
                           l1144 06FC                             l1136 06C8  
                           l1128 0694                             l1240 08AE  
                           l1082 09C8                             l1074 09B2  
                           l1066 09A6                             l1058 0934  
                           l1154 0744                             l1146 0710  
                           l1138 06DC                             l1090 0A24  
                           l1170 09EC                             l1162 09D4  
                           l1242 08B4                             l1234 0872  
                           l1250 0784                             l1076 09BE  
                           l1068 09A8                             l1156 074A  
                           l1148 0716                             l1092 0A32  
                           l1180 0A04                             l1172 09EE  
                           l1164 09E4                             l1236 0876  
                           l1260 07D8                             l1252 078A  
                           l1244 0768                             l1078 09C2  
                           l1158 075E                             l1190 0A66  
                           l1094 0AAE                             l1086 0A12  
                           l1182 0A08                             l1174 09F2  
                           l1166 09E6                             l1238 088A  
                           l1270 082C                             l1262 07DE  
                           l1254 079E                             l1246 076C  
                           l1096 0A6E                             l1088 0A22  
                           l1176 09FE                             l1168 09E8  
                           l1272 0832                             l1264 07F2  
                           l1256 07AE                             l1248 0770  
                           l1186 0AA2                             l1178 0A02  
                           l1274 0852                             l1266 0802  
                           l1258 07C4                             l1188 0A54  
                           l1268 0818                             STR_1 061F  
                           STR_2 0636                             STR_3 0601  
                           STR_4 0611                             STR_5 062B  
                           _LATA 000F89                             _LATB 000F8A  
                           _LATC 000F8B                             _WPUB 000F7C  
                           _main 0768               __ccov119_end_blk21 07F2  
                           fsr0h 000FEA                             indf0 000FEF  
                           fsr0l 000FE9           __size_of_WriteDataXLCD 0040  
            __ccov22_start_blk14 0978                             start 0000  
             __ccov31_start_blk0 0A6E               __ccov15_start_blk5 095C  
                   ___param_bank 000000              __ccov105_start_blk7 09FE  
            __ccov113_start_blk7 0784             __ccov120_start_blk23 07F2  
                   _WriteCmdXLCD 08E8   __size_of_OSCILLATOR_Initialize 000C  
  __end_of_OSCILLATOR_Initialize 0ABA                    ?_SetDDRamAddr 0015  
                          ?_main 0015                     __ccovbit20_6 0014  
                   __ccovbit17_5 0015                            _ANSEL 000F7E  
                   __ccovbit2_10 0010                     __ccovbit7_12 000E  
                          _PORTB 000F81                            _TRISA 000F92  
                          _TRISB 000F93                            _TRISC 000F94  
             __ccov32_start_blk2 0A7E               __ccov40_start_blk4 0650  
             __ccov16_start_blk6 0960              __ccov106_start_blk8 0A02  
                 __pbitbssCOMRAM 0008                            tablat 000FF5  
                          status 000FD8                   __pcodecov_info 0000  
            __ccov23_start_blk15 097E              __size_of_LCD_inicio 001A  
             __ccov33_start_blk0 0A54               __ccov41_start_blk5 0652  
             __ccov17_start_blk7 0966                  __initialization 0A38  
                   __end_of_main 0872              __ccov107_start_blk9 0A04  
               __end_of_BusyXLCD 098A               __size_of_DelayXLCD 0014  
           __ccov121_start_blk24 0802            __size_of_DelayPORXLCD 0012  
                 ??_SetDDRamAddr 0015                 __end_of_OpenXLCD 0768  
                         ??_main 0019                    __activetblptr 000002  
                  _WriteDataXLCD 09D2               __ccov34_start_blk1 0A66  
             __ccov42_start_blk6 0654               __ccov18_start_blk8 0968  
                  __ccovbit11_13 000D                    __ccovbit11_15 000B  
                  __ccovbit12_14 000C                    __ccovbit12_17 0009  
                  __ccovbit14_16 000A                    __ccovbit33_18 0008  
                  __ccovbit55_11 000F                           _ANSELH 000F7F  
               __ccov10_end_blk0 0942                           _OSCCON 000FD3  
               __ccov11_end_blk1 0946              __ccov24_start_blk16 0980  
                   _DelayPORXLCD 0A82                 __ccov12_end_blk2 094C  
             __ccov27_start_blk0 0A94               __ccov35_start_blk2 0A6A  
             __ccov43_start_blk7 0656               __ccov19_start_blk9 096A  
               __ccov13_end_blk3 095A              __ccov95_start_blk10 091E  
           __ccov114_start_blk10 078A             __ccov122_start_blk27 0818  
                         clear_0 0A44                 __ccov30_end_blk2 0A94  
               __ccov14_end_blk4 095C                   ?_WriteDataXLCD 0015  
               __ccov31_end_blk0 0A7E                 __ccov15_end_blk5 0960  
                   __mediumconst 0000                           tblptrh 000FF7  
                         tblptrl 000FF6                 __ccov32_end_blk2 0A82  
             __ccov36_start_blk0 0640                           tblptru 000FF8  
             __ccov28_start_blk1 0A9E                 __ccov40_end_blk4 0652  
               __ccov16_end_blk6 0966               __ccov44_start_blk8 0664  
               __ccov33_end_blk0 0A66                 __ccov41_end_blk5 0654  
               __ccov17_end_blk7 0968                __end_of_DelayXLCD 0A82  
              _SYSTEM_Initialize 0AA2                 __ccov34_end_blk1 0A6A  
               __ccov42_end_blk6 0656                 __ccov18_end_blk8 096A  
                     __accesstop 0060          __end_of__initialization 0A4A  
             ?_SYSTEM_Initialize 0015                    ___rparam_used 000001  
               __ccov27_end_blk0 0A9E                 __ccov35_end_blk2 0A6E  
               __ccov43_end_blk7 0664                 __ccov19_end_blk9 0972  
            __ccov25_start_blk17 0982                 __ccov36_end_blk0 064A  
               __ccov28_end_blk1 0AA2               __ccov29_start_blk0 0A82  
             __ccov37_start_blk1 064A                 __ccov44_end_blk8 066A  
             __ccov45_start_blk9 066A                   __pcstackCOMRAM 0015  
            ??_SYSTEM_Initialize 0015                 __ccov29_end_blk0 0A90  
               __ccov37_end_blk1 064C                 __ccov45_end_blk9 067A  
            __ccov96_start_blk11 0934             __ccov115_start_blk12 079E  
           __ccov123_start_blk29 082C                 __ccov38_end_blk2 064E  
               __ccov70_end_blk7 08B4                     ??_LCD_inicio 0019  
               __ccov39_end_blk3 0650                 __ccov71_end_blk9 08E4  
             __ccov38_start_blk2 064C                 __ccov80_end_blk7 09C2  
             __ccov70_start_blk7 08AE                  __ccov1_end_blk0 0AAA  
      __end_of_SYSTEM_Initialize 0AAE           __size_of_DelayFor18TCY 000E  
               __ccov73_end_blk0 09A4                 __ccov81_end_blk8 09C4  
                      ?_BusyXLCD 0015                  __ccov2_end_blk1 0AAE  
                WriteCmdXLCD@cmd 0016                 __ccov74_end_blk1 09A6  
               __ccov90_end_blk5 0908                 __ccov82_end_blk9 09C8  
           __end_of_SetDDRamAddr 09D2                  __ccov3_end_blk0 0AB6  
                      ?_OpenXLCD 0015                 __ccov67_end_blk0 0876  
               __ccov75_end_blk2 09A8                 __ccov91_end_blk6 0914  
            __ccov26_start_blk20 0986              __ccov50_start_blk16 0694  
                __ccov4_end_blk1 0ABA               __end_of_LCD_inicio 0A6E  
               __ccov76_end_blk3 09AC                 __ccov68_end_blk4 088A  
             __ccov39_start_blk3 064E                 __ccov92_end_blk7 0918  
             __ccov71_start_blk9 08B4                WriteDataXLCD@data 0015  
                __ccov5_end_blk0 0A22                 __ccov85_end_blk0 08FA  
               __ccov77_end_blk4 09AE                 __ccov69_end_blk6 08AE  
               __ccov93_end_blk8 091A              __ccov97_start_blk14 093A  
                ??_WriteDataXLCD 0015             __ccov108_start_blk10 0A08  
           __ccov116_start_blk13 07AE             __ccov124_start_blk31 0832  
                __ccov6_end_blk1 0A24                 __ccov86_end_blk1 08FC  
               __ccov78_end_blk5 09B2                 __ccov94_end_blk9 091E  
                __ccov7_end_blk2 0A32                 __ccov87_end_blk2 08FE  
               __ccov79_end_blk6 09BE                  __ccov8_end_blk3 0A34  
                        _OSCTUNE 000F9B                 __ccov88_end_blk3 0902  
             __ccov80_start_blk7 09BE                  __ccov9_end_blk4 0A38  
               __ccov89_end_blk4 0904               __size_of_putrsXLCD 0076  
                     ??_BusyXLCD 0015                 __ccov98_end_blk0 09E4  
              __ccov1_start_blk0 0AA2                       ??_OpenXLCD 0017  
               __ccov99_end_blk1 09E6                          __Hparam 0000  
              __ccov20_end_blk12 0974              __ccov51_start_blk18 06A8  
                        __Lparam 0000               __ccov73_start_blk0 098A  
             __ccov81_start_blk8 09C2                    _DelayFor18TCY 0A94  
                   __psmallconst 0600                __ccov21_end_blk13 0978  
           __ccov109_start_blk12 0A0E             __ccov117_start_blk16 07C4  
           __ccov125_start_blk33 0852                          __pcinit 0A38  
                putrsXLCD@buffer 0016                          __ramtop 0600  
                        __ptext0 0768                          __ptext1 0872  
                        __ptext2 09D2                          __ptext3 0AA2  
                        __ptext4 0A12                          __ptext5 0AAE  
                        __ptext6 0A54                          __ptext7 0640  
                        __ptext8 08E8                          __ptext9 0A82  
              __ccov2_start_blk1 0AAA            _OSCILLATOR_Initialize 0AAE  
       ??_PIN_MANAGER_Initialize 0015                __ccov22_end_blk14 097E  
             __ccov74_start_blk1 09A4               __ccov90_start_blk5 0904  
             __ccov82_start_blk9 09C4       __size_of_SYSTEM_Initialize 000C  
           end_of_initialization 0A4A                     ftoat_mio@buf 0004  
              __ccov23_end_blk15 0980                    __Lmediumconst 0000  
              __ccov3_start_blk0 0AAE                __ccov24_end_blk16 0982  
            __ccov52_start_blk21 06AE              __ccov60_start_blk41 0716  
             __ccov67_start_blk0 0872                   ?_DelayFor18TCY 0015  
             __ccov75_start_blk2 09A6               __ccov91_start_blk6 0908  
                        postinc0 000FEE                __end_of_putrsXLCD 08E8  
              __ccov25_end_blk17 0986             __ccov118_start_blk18 07D8  
              __ccov4_start_blk1 0AB6                __ccov26_end_blk20 098A  
                      _TRISBbits 000F93                __ccov50_end_blk16 06A8  
                      _TRISCbits 000F94               __ccov76_start_blk3 09A8  
             __ccov68_start_blk4 0876               __ccov92_start_blk7 0914  
          __size_of_SetDDRamAddr 0048                __ccov51_end_blk18 06AE  
                      _DelayXLCD 0A6E                __ccov5_start_blk0 0A12  
              __ccov52_end_blk21 06C2                __ccov60_end_blk41 072A  
            __ccov53_start_blk23 06C2              __ccov61_start_blk43 072A  
             __ccov85_start_blk0 08E8               __ccov77_start_blk4 09AC  
             __ccov69_start_blk6 088A               __ccov93_start_blk8 0918  
                    __ccovbit1_1 0019                      __ccovbit1_2 0018  
                    __ccovbit1_7 0013                      __ccovbit2_8 0012  
                    __ccovbit2_9 0011                      __ccovbit4_3 0017  
                    __ccovbit9_4 0016                __ccov53_end_blk23 06C8  
              __ccov61_end_blk43 0730             __ccov119_start_blk21 07DE  
         ?_OSCILLATOR_Initialize 0015                     _SetDDRamAddr 098A  
              __ccov6_start_blk1 0A22               SetDDRamAddr@DDaddr 0016  
            start_initialization 0A38                __ccov46_end_blk10 0680  
              __ccov54_end_blk26 06DC                __ccov62_end_blk46 0744  
__size_of_PIN_MANAGER_Initialize 0026               __ccov86_start_blk1 08FA  
             __ccov78_start_blk5 09AE               __ccov94_start_blk9 091A  
              __ccov47_end_blk11 0688                __ccov55_end_blk28 06E2  
              __ccov63_end_blk48 074A                __size_of_BusyXLCD 004C  
                     ?_DelayXLCD 0015                __ccov7_start_blk2 0A24  
                ??_DelayFor18TCY 0015                __ccov72_end_blk11 08E8  
              __ccov48_end_blk12 068E                __ccov56_end_blk31 06F6  
            __ccov46_start_blk10 067A                __ccov64_end_blk51 075E  
            __ccov54_start_blk26 06C8              __ccov62_start_blk46 0730  
              __size_of_OpenXLCD 0128               __ccov87_start_blk2 08FC  
             __ccov79_start_blk6 09B2                    ?_WriteCmdXLCD 0015  
              __ccov49_end_blk13 0694                __ccov57_end_blk33 06FC  
              __ccov65_end_blk53 0764                __ccov8_start_blk3 0A32  
                    __pbssCOMRAM 0004                __ccov58_end_blk36 0710  
              __ccov66_end_blk55 0768               __ccov88_start_blk3 08FE  
              __ccov83_end_blk10 09CE                __ccov59_end_blk38 0716  
              __ccov9_start_blk4 0A34           _PIN_MANAGER_Initialize 0A12  
              __ccov84_end_blk12 09D2              __ccov47_start_blk11 0680  
            __ccov55_start_blk28 06DC              __ccov63_start_blk48 0744  
                 ??_WriteCmdXLCD 0016               __ccov89_start_blk4 0902  
          __end_of_WriteDataXLCD 0A12                      __smallconst 0600  
             __ccov98_start_blk0 09D2                __ccov95_end_blk10 0934  
                       _LATAbits 000F89                         _LATBbits 000F8A  
                       _LATCbits 000F8B                      ??_DelayXLCD 0015  
                  ?_DelayPORXLCD 0015                  OpenXLCD@lcdtype 0018  
              __ccov96_end_blk11 093A              __ccov72_start_blk11 08E4  
            __ccov48_start_blk12 0688              __ccov56_start_blk31 06E2  
            __ccov64_start_blk51 074A               __ccov99_start_blk1 09E4  
              __ccov97_end_blk14 093E                        _putrsXLCD 0872  
                    _INTCON2bits 000FF1                         _BusyXLCD 093E  
                 ??_DelayPORXLCD 0015                         _OpenXLCD 0640  
                       __Hrparam 0000                         __Lrparam 0000  
            __ccov49_start_blk13 068E              __ccov57_start_blk33 06F6  
            __ccov65_start_blk53 075E          ??_OSCILLATOR_Initialize 0015  
                     ?_putrsXLCD 0016                         __ptext10 098A  
                       __ptext11 093E                         __ptext12 0A94  
                       __ptext13 0A6E             __end_of_WriteCmdXLCD 093E  
                  __size_of_main 010A              __ccov58_start_blk36 06FC  
            __ccov66_start_blk55 0764                       _LCD_inicio 0A54  
             __ccov10_start_blk0 093E              __ccov100_start_blk2 09E6  
        ?_PIN_MANAGER_Initialize 0015              __ccov20_start_blk12 0972  
             __ccov11_start_blk1 0942                __ccov100_end_blk2 09E8  
             __ccov120_end_blk23 0802            __end_of_DelayFor18TCY 0AA2  
            __ccov101_start_blk3 09E8              __ccov83_start_blk10 09C8  
            __ccov59_start_blk38 0710                __ccov101_end_blk3 09EC  
              __ccov110_end_blk0 076C                __ccov102_end_blk4 09EE  
             __ccov121_end_blk24 0818             __end_of_DelayPORXLCD 0A94  
              __ccov111_end_blk1 0770                __ccov103_end_blk5 09F2  
                    ??_putrsXLCD 0018               __ccov12_start_blk2 0946  
              __ccov112_end_blk5 0784                __ccov104_end_blk6 09FE  
             __ccov114_end_blk10 079E               __ccov122_end_blk27 082C  
            __ccov110_start_blk0 0768              __ccov102_start_blk4 09EC  
              __ccov105_end_blk7 0A02                __ccov113_end_blk7 078A  
 __end_of_PIN_MANAGER_Initialize 0A38                __ccov106_end_blk8 0A04  
             __ccov115_end_blk12 07AE               __ccov123_end_blk29 0832  
            __ccov21_start_blk13 0974                __ccov107_end_blk9 0A08  
             __ccov13_start_blk3 094C  
